
GccApplication1.elf:     file format elf32-avr

Sections:
Idx Name          Size      VMA       LMA       File off  Algn
  0 .data         00000784  00800200  00002c5e  00002cf2  2**0
                  CONTENTS, ALLOC, LOAD, DATA
  1 .text         00002c5e  00000000  00000000  00000094  2**1
                  CONTENTS, ALLOC, LOAD, READONLY, CODE
  2 .bss          000003c0  00800984  00800984  00003476  2**0
                  ALLOC
  3 .comment      0000005c  00000000  00000000  00003476  2**0
                  CONTENTS, READONLY
  4 .debug_aranges 00000178  00000000  00000000  000034d2  2**0
                  CONTENTS, READONLY, DEBUGGING
  5 .debug_pubnames 000004bb  00000000  00000000  0000364a  2**0
                  CONTENTS, READONLY, DEBUGGING
  6 .debug_info   00002a1b  00000000  00000000  00003b05  2**0
                  CONTENTS, READONLY, DEBUGGING
  7 .debug_abbrev 00000aef  00000000  00000000  00006520  2**0
                  CONTENTS, READONLY, DEBUGGING
  8 .debug_line   000019d5  00000000  00000000  0000700f  2**0
                  CONTENTS, READONLY, DEBUGGING
  9 .debug_frame  00000710  00000000  00000000  000089e4  2**2
                  CONTENTS, READONLY, DEBUGGING
 10 .debug_str    00000b6f  00000000  00000000  000090f4  2**0
                  CONTENTS, READONLY, DEBUGGING
 11 .debug_loc    000016bd  00000000  00000000  00009c63  2**0
                  CONTENTS, READONLY, DEBUGGING
 12 .debug_ranges 000000f8  00000000  00000000  0000b320  2**0
                  CONTENTS, READONLY, DEBUGGING

Disassembly of section .text:

00000000 <__vectors>:
       0:	65 c0       	rjmp	.+202    	; 0xcc <__ctors_end>
       2:	00 00       	nop
       4:	84 c0       	rjmp	.+264    	; 0x10e <__bad_interrupt>
       6:	00 00       	nop
       8:	82 c0       	rjmp	.+260    	; 0x10e <__bad_interrupt>
       a:	00 00       	nop
       c:	80 c0       	rjmp	.+256    	; 0x10e <__bad_interrupt>
       e:	00 00       	nop
      10:	7e c0       	rjmp	.+252    	; 0x10e <__bad_interrupt>
      12:	00 00       	nop
      14:	7c c0       	rjmp	.+248    	; 0x10e <__bad_interrupt>
      16:	00 00       	nop
      18:	7a c0       	rjmp	.+244    	; 0x10e <__bad_interrupt>
      1a:	00 00       	nop
      1c:	78 c0       	rjmp	.+240    	; 0x10e <__bad_interrupt>
      1e:	00 00       	nop
      20:	76 c0       	rjmp	.+236    	; 0x10e <__bad_interrupt>
      22:	00 00       	nop
      24:	74 c0       	rjmp	.+232    	; 0x10e <__bad_interrupt>
      26:	00 00       	nop
      28:	72 c0       	rjmp	.+228    	; 0x10e <__bad_interrupt>
      2a:	00 00       	nop
      2c:	70 c0       	rjmp	.+224    	; 0x10e <__bad_interrupt>
      2e:	00 00       	nop
      30:	6e c0       	rjmp	.+220    	; 0x10e <__bad_interrupt>
      32:	00 00       	nop
      34:	6c c0       	rjmp	.+216    	; 0x10e <__bad_interrupt>
      36:	00 00       	nop
      38:	6a c0       	rjmp	.+212    	; 0x10e <__bad_interrupt>
      3a:	00 00       	nop
      3c:	68 c0       	rjmp	.+208    	; 0x10e <__bad_interrupt>
      3e:	00 00       	nop
      40:	66 c0       	rjmp	.+204    	; 0x10e <__bad_interrupt>
      42:	00 00       	nop
      44:	64 c0       	rjmp	.+200    	; 0x10e <__bad_interrupt>
      46:	00 00       	nop
      48:	62 c0       	rjmp	.+196    	; 0x10e <__bad_interrupt>
      4a:	00 00       	nop
      4c:	60 c0       	rjmp	.+192    	; 0x10e <__bad_interrupt>
      4e:	00 00       	nop
      50:	5e c0       	rjmp	.+188    	; 0x10e <__bad_interrupt>
      52:	00 00       	nop
      54:	5c c0       	rjmp	.+184    	; 0x10e <__bad_interrupt>
      56:	00 00       	nop
      58:	5a c0       	rjmp	.+180    	; 0x10e <__bad_interrupt>
      5a:	00 00       	nop
      5c:	58 c0       	rjmp	.+176    	; 0x10e <__bad_interrupt>
      5e:	00 00       	nop
      60:	56 c0       	rjmp	.+172    	; 0x10e <__bad_interrupt>
      62:	00 00       	nop
      64:	24 c4       	rjmp	.+2120   	; 0x8ae <__vector_25>
      66:	00 00       	nop
      68:	52 c0       	rjmp	.+164    	; 0x10e <__bad_interrupt>
      6a:	00 00       	nop
      6c:	50 c0       	rjmp	.+160    	; 0x10e <__bad_interrupt>
      6e:	00 00       	nop
      70:	4e c0       	rjmp	.+156    	; 0x10e <__bad_interrupt>
      72:	00 00       	nop
      74:	4c c0       	rjmp	.+152    	; 0x10e <__bad_interrupt>
      76:	00 00       	nop
      78:	4a c0       	rjmp	.+148    	; 0x10e <__bad_interrupt>
      7a:	00 00       	nop
      7c:	48 c0       	rjmp	.+144    	; 0x10e <__bad_interrupt>
      7e:	00 00       	nop
      80:	46 c0       	rjmp	.+140    	; 0x10e <__bad_interrupt>
      82:	00 00       	nop
      84:	44 c0       	rjmp	.+136    	; 0x10e <__bad_interrupt>
      86:	00 00       	nop
      88:	42 c0       	rjmp	.+132    	; 0x10e <__bad_interrupt>
      8a:	00 00       	nop
      8c:	40 c0       	rjmp	.+128    	; 0x10e <__bad_interrupt>
      8e:	00 00       	nop
      90:	13 c5       	rjmp	.+2598   	; 0xab8 <__vector_36>
      92:	00 00       	nop
      94:	3c c0       	rjmp	.+120    	; 0x10e <__bad_interrupt>
      96:	00 00       	nop
      98:	3a c0       	rjmp	.+116    	; 0x10e <__bad_interrupt>
      9a:	00 00       	nop
      9c:	38 c0       	rjmp	.+112    	; 0x10e <__bad_interrupt>
      9e:	00 00       	nop
      a0:	36 c0       	rjmp	.+108    	; 0x10e <__bad_interrupt>
      a2:	00 00       	nop
      a4:	34 c0       	rjmp	.+104    	; 0x10e <__bad_interrupt>
      a6:	00 00       	nop
      a8:	32 c0       	rjmp	.+100    	; 0x10e <__bad_interrupt>
      aa:	00 00       	nop
      ac:	30 c0       	rjmp	.+96     	; 0x10e <__bad_interrupt>
      ae:	00 00       	nop
      b0:	2e c0       	rjmp	.+92     	; 0x10e <__bad_interrupt>
      b2:	00 00       	nop
      b4:	2c c0       	rjmp	.+88     	; 0x10e <__bad_interrupt>
      b6:	00 00       	nop
      b8:	2a c0       	rjmp	.+84     	; 0x10e <__bad_interrupt>
      ba:	00 00       	nop
      bc:	28 c0       	rjmp	.+80     	; 0x10e <__bad_interrupt>
      be:	00 00       	nop
      c0:	26 c0       	rjmp	.+76     	; 0x10e <__bad_interrupt>
      c2:	00 00       	nop
      c4:	24 c0       	rjmp	.+72     	; 0x10e <__bad_interrupt>
      c6:	00 00       	nop
      c8:	22 c0       	rjmp	.+68     	; 0x10e <__bad_interrupt>
	...

000000cc <__ctors_end>:
      cc:	11 24       	eor	r1, r1
      ce:	1f be       	out	0x3f, r1	; 63
      d0:	cf ef       	ldi	r28, 0xFF	; 255
      d2:	d1 e2       	ldi	r29, 0x21	; 33
      d4:	de bf       	out	0x3e, r29	; 62
      d6:	cd bf       	out	0x3d, r28	; 61
      d8:	00 e0       	ldi	r16, 0x00	; 0
      da:	0c bf       	out	0x3c, r16	; 60

000000dc <__do_copy_data>:
      dc:	19 e0       	ldi	r17, 0x09	; 9
      de:	a0 e0       	ldi	r26, 0x00	; 0
      e0:	b2 e0       	ldi	r27, 0x02	; 2
      e2:	ee e5       	ldi	r30, 0x5E	; 94
      e4:	fc e2       	ldi	r31, 0x2C	; 44
      e6:	00 e0       	ldi	r16, 0x00	; 0
      e8:	0b bf       	out	0x3b, r16	; 59
      ea:	02 c0       	rjmp	.+4      	; 0xf0 <__do_copy_data+0x14>
      ec:	07 90       	elpm	r0, Z+
      ee:	0d 92       	st	X+, r0
      f0:	a4 38       	cpi	r26, 0x84	; 132
      f2:	b1 07       	cpc	r27, r17
      f4:	d9 f7       	brne	.-10     	; 0xec <__do_copy_data+0x10>

000000f6 <__do_clear_bss>:
      f6:	2d e0       	ldi	r18, 0x0D	; 13
      f8:	a4 e8       	ldi	r26, 0x84	; 132
      fa:	b9 e0       	ldi	r27, 0x09	; 9
      fc:	01 c0       	rjmp	.+2      	; 0x100 <.do_clear_bss_start>

000000fe <.do_clear_bss_loop>:
      fe:	1d 92       	st	X+, r1

00000100 <.do_clear_bss_start>:
     100:	a4 34       	cpi	r26, 0x44	; 68
     102:	b2 07       	cpc	r27, r18
     104:	e1 f7       	brne	.-8      	; 0xfe <.do_clear_bss_loop>
     106:	0e 94 a7 0d 	call	0x1b4e	; 0x1b4e <main>
     10a:	0c 94 2d 16 	jmp	0x2c5a	; 0x2c5a <_exit>

0000010e <__bad_interrupt>:
     10e:	78 cf       	rjmp	.-272    	; 0x0 <__vectors>

00000110 <dxl_get_result>:
     110:	80 91 00 02 	lds	r24, 0x0200
     114:	90 91 01 02 	lds	r25, 0x0201
     118:	08 95       	ret

0000011a <dxl_set_txpacket_id>:
     11a:	80 93 86 09 	sts	0x0986, r24
     11e:	08 95       	ret

00000120 <dxl_set_txpacket_instruction>:
     120:	80 93 88 09 	sts	0x0988, r24
     124:	08 95       	ret

00000126 <dxl_set_txpacket_parameter>:
     126:	fc 01       	movw	r30, r24
     128:	ec 57       	subi	r30, 0x7C	; 124
     12a:	f6 4f       	sbci	r31, 0xF6	; 246
     12c:	65 83       	std	Z+5, r22	; 0x05
     12e:	08 95       	ret

00000130 <dxl_set_txpacket_length>:
     130:	80 93 87 09 	sts	0x0987, r24
     134:	08 95       	ret

00000136 <dxl_get_rxpacket_error>:
     136:	20 e0       	ldi	r18, 0x00	; 0
     138:	30 e0       	ldi	r19, 0x00	; 0
     13a:	90 91 28 0a 	lds	r25, 0x0A28
     13e:	98 23       	and	r25, r24
     140:	11 f0       	breq	.+4      	; 0x146 <dxl_get_rxpacket_error+0x10>
     142:	21 e0       	ldi	r18, 0x01	; 1
     144:	30 e0       	ldi	r19, 0x00	; 0
     146:	c9 01       	movw	r24, r18
     148:	08 95       	ret

0000014a <dxl_get_rxpacket_length>:
     14a:	80 91 27 0a 	lds	r24, 0x0A27
     14e:	90 e0       	ldi	r25, 0x00	; 0
     150:	08 95       	ret

00000152 <dxl_get_rxpacket_parameter>:
     152:	fc 01       	movw	r30, r24
     154:	ec 5d       	subi	r30, 0xDC	; 220
     156:	f5 4f       	sbci	r31, 0xF5	; 245
     158:	85 81       	ldd	r24, Z+5	; 0x05
     15a:	90 e0       	ldi	r25, 0x00	; 0
     15c:	08 95       	ret

0000015e <dxl_makeword>:
     15e:	36 2f       	mov	r19, r22
     160:	20 e0       	ldi	r18, 0x00	; 0
     162:	28 0f       	add	r18, r24
     164:	39 1f       	adc	r19, r25
     166:	c9 01       	movw	r24, r18
     168:	08 95       	ret

0000016a <dxl_get_lowbyte>:
     16a:	28 2f       	mov	r18, r24
     16c:	30 e0       	ldi	r19, 0x00	; 0
     16e:	c9 01       	movw	r24, r18
     170:	08 95       	ret

00000172 <dxl_get_highbyte>:
     172:	80 70       	andi	r24, 0x00	; 0
     174:	89 2f       	mov	r24, r25
     176:	90 e0       	ldi	r25, 0x00	; 0
     178:	08 95       	ret

0000017a <dxl_rx_packet>:
     17a:	0f 93       	push	r16
     17c:	1f 93       	push	r17
     17e:	cf 93       	push	r28
     180:	df 93       	push	r29
     182:	80 91 6c 0a 	lds	r24, 0x0A6C
     186:	90 91 6d 0a 	lds	r25, 0x0A6D
     18a:	89 2b       	or	r24, r25
     18c:	09 f4       	brne	.+2      	; 0x190 <dxl_rx_packet+0x16>
     18e:	b8 c0       	rjmp	.+368    	; 0x300 <dxl_rx_packet+0x186>
     190:	80 91 86 09 	lds	r24, 0x0986
     194:	8e 3f       	cpi	r24, 0xFE	; 254
     196:	09 f4       	brne	.+2      	; 0x19a <dxl_rx_packet+0x20>
     198:	a9 c0       	rjmp	.+338    	; 0x2ec <dxl_rx_packet+0x172>
     19a:	80 91 00 02 	lds	r24, 0x0200
     19e:	90 91 01 02 	lds	r25, 0x0201
     1a2:	89 2b       	or	r24, r25
     1a4:	29 f4       	brne	.+10     	; 0x1b0 <dxl_rx_packet+0x36>
     1a6:	10 92 6b 0a 	sts	0x0A6B, r1
     1aa:	86 e0       	ldi	r24, 0x06	; 6
     1ac:	80 93 6a 0a 	sts	0x0A6A, r24
     1b0:	80 91 6b 0a 	lds	r24, 0x0A6B
     1b4:	90 e0       	ldi	r25, 0x00	; 0
     1b6:	60 91 6a 0a 	lds	r22, 0x0A6A
     1ba:	70 e0       	ldi	r23, 0x00	; 0
     1bc:	68 1b       	sub	r22, r24
     1be:	79 0b       	sbc	r23, r25
     1c0:	8c 5d       	subi	r24, 0xDC	; 220
     1c2:	95 4f       	sbci	r25, 0xF5	; 245
     1c4:	49 d3       	rcall	.+1682   	; 0x858 <dxl_hal_rx>
     1c6:	90 91 6b 0a 	lds	r25, 0x0A6B
     1ca:	98 0f       	add	r25, r24
     1cc:	90 93 6b 0a 	sts	0x0A6B, r25
     1d0:	80 91 6a 0a 	lds	r24, 0x0A6A
     1d4:	98 17       	cp	r25, r24
     1d6:	18 f4       	brcc	.+6      	; 0x1de <dxl_rx_packet+0x64>
     1d8:	4a d2       	rcall	.+1172   	; 0x66e <dxl_hal_timeout>
     1da:	01 97       	sbiw	r24, 0x01	; 1
     1dc:	71 f0       	breq	.+28     	; 0x1fa <dxl_rx_packet+0x80>
     1de:	70 91 6b 0a 	lds	r23, 0x0A6B
     1e2:	47 2f       	mov	r20, r23
     1e4:	50 e0       	ldi	r21, 0x00	; 0
     1e6:	da 01       	movw	r26, r20
     1e8:	11 97       	sbiw	r26, 0x01	; 1
     1ea:	8a 01       	movw	r16, r20
     1ec:	02 50       	subi	r16, 0x02	; 2
     1ee:	10 40       	sbci	r17, 0x00	; 0
     1f0:	60 e0       	ldi	r22, 0x00	; 0
     1f2:	ed 01       	movw	r28, r26
     1f4:	cc 5d       	subi	r28, 0xDC	; 220
     1f6:	d5 4f       	sbci	r29, 0xF5	; 245
     1f8:	18 c0       	rjmp	.+48     	; 0x22a <dxl_rx_packet+0xb0>
     1fa:	80 91 6b 0a 	lds	r24, 0x0A6B
     1fe:	88 23       	and	r24, r24
     200:	09 f0       	breq	.+2      	; 0x204 <dxl_rx_packet+0x8a>
     202:	71 c0       	rjmp	.+226    	; 0x2e6 <dxl_rx_packet+0x16c>
     204:	86 e0       	ldi	r24, 0x06	; 6
     206:	90 e0       	ldi	r25, 0x00	; 0
     208:	73 c0       	rjmp	.+230    	; 0x2f0 <dxl_rx_packet+0x176>
     20a:	f9 01       	movw	r30, r18
     20c:	ec 5d       	subi	r30, 0xDC	; 220
     20e:	f5 4f       	sbci	r31, 0xF5	; 245
     210:	80 81       	ld	r24, Z
     212:	8f 3f       	cpi	r24, 0xFF	; 255
     214:	19 f4       	brne	.+6      	; 0x21c <dxl_rx_packet+0xa2>
     216:	81 81       	ldd	r24, Z+1	; 0x01
     218:	8f 3f       	cpi	r24, 0xFF	; 255
     21a:	61 f0       	breq	.+24     	; 0x234 <dxl_rx_packet+0xba>
     21c:	20 17       	cp	r18, r16
     21e:	31 07       	cpc	r19, r17
     220:	19 f4       	brne	.+6      	; 0x228 <dxl_rx_packet+0xae>
     222:	88 81       	ld	r24, Y
     224:	8f 3f       	cpi	r24, 0xFF	; 255
     226:	31 f0       	breq	.+12     	; 0x234 <dxl_rx_packet+0xba>
     228:	6f 5f       	subi	r22, 0xFF	; 255
     22a:	26 2f       	mov	r18, r22
     22c:	30 e0       	ldi	r19, 0x00	; 0
     22e:	2a 17       	cp	r18, r26
     230:	3b 07       	cpc	r19, r27
     232:	5c f3       	brlt	.-42     	; 0x20a <dxl_rx_packet+0x90>
     234:	66 23       	and	r22, r22
     236:	a1 f0       	breq	.+40     	; 0x260 <dxl_rx_packet+0xe6>
     238:	90 e0       	ldi	r25, 0x00	; 0
     23a:	42 1b       	sub	r20, r18
     23c:	53 0b       	sbc	r21, r19
     23e:	08 c0       	rjmp	.+16     	; 0x250 <dxl_rx_packet+0xd6>
     240:	ec 5d       	subi	r30, 0xDC	; 220
     242:	f5 4f       	sbci	r31, 0xF5	; 245
     244:	df 01       	movw	r26, r30
     246:	a2 0f       	add	r26, r18
     248:	b3 1f       	adc	r27, r19
     24a:	8c 91       	ld	r24, X
     24c:	80 83       	st	Z, r24
     24e:	9f 5f       	subi	r25, 0xFF	; 255
     250:	e9 2f       	mov	r30, r25
     252:	f0 e0       	ldi	r31, 0x00	; 0
     254:	e4 17       	cp	r30, r20
     256:	f5 07       	cpc	r31, r21
     258:	9c f3       	brlt	.-26     	; 0x240 <dxl_rx_packet+0xc6>
     25a:	76 1b       	sub	r23, r22
     25c:	70 93 6b 0a 	sts	0x0A6B, r23
     260:	20 91 6b 0a 	lds	r18, 0x0A6B
     264:	80 91 6a 0a 	lds	r24, 0x0A6A
     268:	28 17       	cp	r18, r24
     26a:	28 f1       	brcs	.+74     	; 0x2b6 <dxl_rx_packet+0x13c>
     26c:	90 91 86 09 	lds	r25, 0x0986
     270:	80 91 26 0a 	lds	r24, 0x0A26
     274:	98 17       	cp	r25, r24
     276:	b9 f5       	brne	.+110    	; 0x2e6 <dxl_rx_packet+0x16c>
     278:	60 91 27 0a 	lds	r22, 0x0A27
     27c:	6c 5f       	subi	r22, 0xFC	; 252
     27e:	60 93 6a 0a 	sts	0x0A6A, r22
     282:	26 17       	cp	r18, r22
     284:	88 f4       	brcc	.+34     	; 0x2a8 <dxl_rx_packet+0x12e>
     286:	82 2f       	mov	r24, r18
     288:	90 e0       	ldi	r25, 0x00	; 0
     28a:	70 e0       	ldi	r23, 0x00	; 0
     28c:	68 1b       	sub	r22, r24
     28e:	79 0b       	sbc	r23, r25
     290:	8c 5d       	subi	r24, 0xDC	; 220
     292:	95 4f       	sbci	r25, 0xF5	; 245
     294:	e1 d2       	rcall	.+1474   	; 0x858 <dxl_hal_rx>
     296:	90 91 6b 0a 	lds	r25, 0x0A6B
     29a:	98 0f       	add	r25, r24
     29c:	90 93 6b 0a 	sts	0x0A6B, r25
     2a0:	80 91 6a 0a 	lds	r24, 0x0A6A
     2a4:	98 17       	cp	r25, r24
     2a6:	38 f0       	brcs	.+14     	; 0x2b6 <dxl_rx_packet+0x13c>
     2a8:	80 91 27 0a 	lds	r24, 0x0A27
     2ac:	a8 2f       	mov	r26, r24
     2ae:	b0 e0       	ldi	r27, 0x00	; 0
     2b0:	20 e0       	ldi	r18, 0x00	; 0
     2b2:	90 e0       	ldi	r25, 0x00	; 0
     2b4:	0c c0       	rjmp	.+24     	; 0x2ce <dxl_rx_packet+0x154>
     2b6:	85 e0       	ldi	r24, 0x05	; 5
     2b8:	90 e0       	ldi	r25, 0x00	; 0
     2ba:	90 93 01 02 	sts	0x0201, r25
     2be:	80 93 00 02 	sts	0x0200, r24
     2c2:	1e c0       	rjmp	.+60     	; 0x300 <dxl_rx_packet+0x186>
     2c4:	ec 5d       	subi	r30, 0xDC	; 220
     2c6:	f5 4f       	sbci	r31, 0xF5	; 245
     2c8:	82 81       	ldd	r24, Z+2	; 0x02
     2ca:	98 0f       	add	r25, r24
     2cc:	2f 5f       	subi	r18, 0xFF	; 255
     2ce:	e2 2f       	mov	r30, r18
     2d0:	f0 e0       	ldi	r31, 0x00	; 0
     2d2:	ae 17       	cp	r26, r30
     2d4:	bf 07       	cpc	r27, r31
     2d6:	b4 f7       	brge	.-20     	; 0x2c4 <dxl_rx_packet+0x14a>
     2d8:	ac 5d       	subi	r26, 0xDC	; 220
     2da:	b5 4f       	sbci	r27, 0xF5	; 245
     2dc:	90 95       	com	r25
     2de:	13 96       	adiw	r26, 0x03	; 3
     2e0:	8c 91       	ld	r24, X
     2e2:	89 17       	cp	r24, r25
     2e4:	19 f0       	breq	.+6      	; 0x2ec <dxl_rx_packet+0x172>
     2e6:	87 e0       	ldi	r24, 0x07	; 7
     2e8:	90 e0       	ldi	r25, 0x00	; 0
     2ea:	02 c0       	rjmp	.+4      	; 0x2f0 <dxl_rx_packet+0x176>
     2ec:	81 e0       	ldi	r24, 0x01	; 1
     2ee:	90 e0       	ldi	r25, 0x00	; 0
     2f0:	90 93 01 02 	sts	0x0201, r25
     2f4:	80 93 00 02 	sts	0x0200, r24
     2f8:	10 92 6d 0a 	sts	0x0A6D, r1
     2fc:	10 92 6c 0a 	sts	0x0A6C, r1
     300:	df 91       	pop	r29
     302:	cf 91       	pop	r28
     304:	1f 91       	pop	r17
     306:	0f 91       	pop	r16
     308:	08 95       	ret

0000030a <dxl_tx_packet>:
     30a:	1f 93       	push	r17
     30c:	80 91 6c 0a 	lds	r24, 0x0A6C
     310:	90 91 6d 0a 	lds	r25, 0x0A6D
     314:	01 97       	sbiw	r24, 0x01	; 1
     316:	09 f4       	brne	.+2      	; 0x31a <dxl_tx_packet+0x10>
     318:	5d c0       	rjmp	.+186    	; 0x3d4 <dxl_tx_packet+0xca>
     31a:	81 e0       	ldi	r24, 0x01	; 1
     31c:	90 e0       	ldi	r25, 0x00	; 0
     31e:	90 93 6d 0a 	sts	0x0A6D, r25
     322:	80 93 6c 0a 	sts	0x0A6C, r24
     326:	80 91 87 09 	lds	r24, 0x0987
     32a:	89 39       	cpi	r24, 0x99	; 153
     32c:	40 f4       	brcc	.+16     	; 0x33e <dxl_tx_packet+0x34>
     32e:	90 91 88 09 	lds	r25, 0x0988
     332:	89 2f       	mov	r24, r25
     334:	81 50       	subi	r24, 0x01	; 1
     336:	86 30       	cpi	r24, 0x06	; 6
     338:	28 f0       	brcs	.+10     	; 0x344 <dxl_tx_packet+0x3a>
     33a:	93 38       	cpi	r25, 0x83	; 131
     33c:	19 f0       	breq	.+6      	; 0x344 <dxl_tx_packet+0x3a>
     33e:	84 e0       	ldi	r24, 0x04	; 4
     340:	90 e0       	ldi	r25, 0x00	; 0
     342:	2f c0       	rjmp	.+94     	; 0x3a2 <dxl_tx_packet+0x98>
     344:	8f ef       	ldi	r24, 0xFF	; 255
     346:	80 93 84 09 	sts	0x0984, r24
     34a:	80 93 85 09 	sts	0x0985, r24
     34e:	80 91 87 09 	lds	r24, 0x0987
     352:	a8 2f       	mov	r26, r24
     354:	b0 e0       	ldi	r27, 0x00	; 0
     356:	20 e0       	ldi	r18, 0x00	; 0
     358:	90 e0       	ldi	r25, 0x00	; 0
     35a:	05 c0       	rjmp	.+10     	; 0x366 <dxl_tx_packet+0x5c>
     35c:	ec 57       	subi	r30, 0x7C	; 124
     35e:	f6 4f       	sbci	r31, 0xF6	; 246
     360:	82 81       	ldd	r24, Z+2	; 0x02
     362:	98 0f       	add	r25, r24
     364:	2f 5f       	subi	r18, 0xFF	; 255
     366:	e2 2f       	mov	r30, r18
     368:	f0 e0       	ldi	r31, 0x00	; 0
     36a:	ae 17       	cp	r26, r30
     36c:	bf 07       	cpc	r27, r31
     36e:	b4 f7       	brge	.-20     	; 0x35c <dxl_tx_packet+0x52>
     370:	ac 57       	subi	r26, 0x7C	; 124
     372:	b6 4f       	sbci	r27, 0xF6	; 246
     374:	90 95       	com	r25
     376:	13 96       	adiw	r26, 0x03	; 3
     378:	9c 93       	st	X, r25
     37a:	80 91 00 02 	lds	r24, 0x0200
     37e:	90 91 01 02 	lds	r25, 0x0201
     382:	06 97       	sbiw	r24, 0x06	; 6
     384:	02 97       	sbiw	r24, 0x02	; 2
     386:	08 f4       	brcc	.+2      	; 0x38a <dxl_tx_packet+0x80>
     388:	38 d1       	rcall	.+624    	; 0x5fa <dxl_hal_clear>
     38a:	10 91 87 09 	lds	r17, 0x0987
     38e:	1c 5f       	subi	r17, 0xFC	; 252
     390:	84 e8       	ldi	r24, 0x84	; 132
     392:	99 e0       	ldi	r25, 0x09	; 9
     394:	61 2f       	mov	r22, r17
     396:	70 e0       	ldi	r23, 0x00	; 0
     398:	35 d1       	rcall	.+618    	; 0x604 <dxl_hal_tx>
     39a:	18 17       	cp	r17, r24
     39c:	59 f0       	breq	.+22     	; 0x3b4 <dxl_tx_packet+0xaa>
     39e:	82 e0       	ldi	r24, 0x02	; 2
     3a0:	90 e0       	ldi	r25, 0x00	; 0
     3a2:	90 93 01 02 	sts	0x0201, r25
     3a6:	80 93 00 02 	sts	0x0200, r24
     3aa:	10 92 6d 0a 	sts	0x0A6D, r1
     3ae:	10 92 6c 0a 	sts	0x0A6C, r1
     3b2:	10 c0       	rjmp	.+32     	; 0x3d4 <dxl_tx_packet+0xca>
     3b4:	80 91 88 09 	lds	r24, 0x0988
     3b8:	82 30       	cpi	r24, 0x02	; 2
     3ba:	29 f4       	brne	.+10     	; 0x3c6 <dxl_tx_packet+0xbc>
     3bc:	80 91 8a 09 	lds	r24, 0x098A
     3c0:	90 e0       	ldi	r25, 0x00	; 0
     3c2:	06 96       	adiw	r24, 0x06	; 6
     3c4:	02 c0       	rjmp	.+4      	; 0x3ca <dxl_tx_packet+0xc0>
     3c6:	86 e0       	ldi	r24, 0x06	; 6
     3c8:	90 e0       	ldi	r25, 0x00	; 0
     3ca:	40 d1       	rcall	.+640    	; 0x64c <dxl_hal_set_timeout>
     3cc:	10 92 01 02 	sts	0x0201, r1
     3d0:	10 92 00 02 	sts	0x0200, r1
     3d4:	1f 91       	pop	r17
     3d6:	08 95       	ret

000003d8 <dxl_txrx_packet>:
     3d8:	98 df       	rcall	.-208    	; 0x30a <dxl_tx_packet>
     3da:	80 91 00 02 	lds	r24, 0x0200
     3de:	90 91 01 02 	lds	r25, 0x0201
     3e2:	89 2b       	or	r24, r25
     3e4:	39 f4       	brne	.+14     	; 0x3f4 <dxl_txrx_packet+0x1c>
     3e6:	c9 de       	rcall	.-622    	; 0x17a <dxl_rx_packet>
     3e8:	80 91 00 02 	lds	r24, 0x0200
     3ec:	90 91 01 02 	lds	r25, 0x0201
     3f0:	05 97       	sbiw	r24, 0x05	; 5
     3f2:	c9 f3       	breq	.-14     	; 0x3e6 <dxl_txrx_packet+0xe>
     3f4:	08 95       	ret

000003f6 <dxl_write_word>:
     3f6:	28 2f       	mov	r18, r24
     3f8:	80 91 6c 0a 	lds	r24, 0x0A6C
     3fc:	90 91 6d 0a 	lds	r25, 0x0A6D
     400:	89 2b       	or	r24, r25
     402:	91 f4       	brne	.+36     	; 0x428 <dxl_write_word+0x32>
     404:	20 93 86 09 	sts	0x0986, r18
     408:	83 e0       	ldi	r24, 0x03	; 3
     40a:	80 93 88 09 	sts	0x0988, r24
     40e:	60 93 89 09 	sts	0x0989, r22
     412:	ca 01       	movw	r24, r20
     414:	40 93 8a 09 	sts	0x098A, r20
     418:	80 70       	andi	r24, 0x00	; 0
     41a:	90 93 8b 09 	sts	0x098B, r25
     41e:	85 e0       	ldi	r24, 0x05	; 5
     420:	80 93 87 09 	sts	0x0987, r24
     424:	d9 cf       	rjmp	.-78     	; 0x3d8 <dxl_txrx_packet>
     426:	08 95       	ret
     428:	ff cf       	rjmp	.-2      	; 0x428 <dxl_write_word+0x32>

0000042a <dxl_read_word>:
     42a:	28 2f       	mov	r18, r24
     42c:	80 91 6c 0a 	lds	r24, 0x0A6C
     430:	90 91 6d 0a 	lds	r25, 0x0A6D
     434:	89 2b       	or	r24, r25
     436:	b1 f4       	brne	.+44     	; 0x464 <dxl_read_word+0x3a>
     438:	20 93 86 09 	sts	0x0986, r18
     43c:	82 e0       	ldi	r24, 0x02	; 2
     43e:	80 93 88 09 	sts	0x0988, r24
     442:	60 93 89 09 	sts	0x0989, r22
     446:	80 93 8a 09 	sts	0x098A, r24
     44a:	84 e0       	ldi	r24, 0x04	; 4
     44c:	80 93 87 09 	sts	0x0987, r24
     450:	c3 df       	rcall	.-122    	; 0x3d8 <dxl_txrx_packet>
     452:	30 91 2a 0a 	lds	r19, 0x0A2A
     456:	20 e0       	ldi	r18, 0x00	; 0
     458:	80 91 29 0a 	lds	r24, 0x0A29
     45c:	28 0f       	add	r18, r24
     45e:	31 1d       	adc	r19, r1
     460:	c9 01       	movw	r24, r18
     462:	08 95       	ret
     464:	ff cf       	rjmp	.-2      	; 0x464 <dxl_read_word+0x3a>

00000466 <dxl_write_byte>:
     466:	28 2f       	mov	r18, r24
     468:	80 91 6c 0a 	lds	r24, 0x0A6C
     46c:	90 91 6d 0a 	lds	r25, 0x0A6D
     470:	89 2b       	or	r24, r25
     472:	71 f4       	brne	.+28     	; 0x490 <dxl_write_byte+0x2a>
     474:	20 93 86 09 	sts	0x0986, r18
     478:	83 e0       	ldi	r24, 0x03	; 3
     47a:	80 93 88 09 	sts	0x0988, r24
     47e:	60 93 89 09 	sts	0x0989, r22
     482:	40 93 8a 09 	sts	0x098A, r20
     486:	84 e0       	ldi	r24, 0x04	; 4
     488:	80 93 87 09 	sts	0x0987, r24
     48c:	a5 cf       	rjmp	.-182    	; 0x3d8 <dxl_txrx_packet>
     48e:	08 95       	ret
     490:	ff cf       	rjmp	.-2      	; 0x490 <dxl_write_byte+0x2a>

00000492 <dxl_read_byte>:
     492:	28 2f       	mov	r18, r24
     494:	80 91 6c 0a 	lds	r24, 0x0A6C
     498:	90 91 6d 0a 	lds	r25, 0x0A6D
     49c:	89 2b       	or	r24, r25
     49e:	91 f4       	brne	.+36     	; 0x4c4 <dxl_read_byte+0x32>
     4a0:	20 93 86 09 	sts	0x0986, r18
     4a4:	82 e0       	ldi	r24, 0x02	; 2
     4a6:	80 93 88 09 	sts	0x0988, r24
     4aa:	60 93 89 09 	sts	0x0989, r22
     4ae:	81 e0       	ldi	r24, 0x01	; 1
     4b0:	80 93 8a 09 	sts	0x098A, r24
     4b4:	84 e0       	ldi	r24, 0x04	; 4
     4b6:	80 93 87 09 	sts	0x0987, r24
     4ba:	8e df       	rcall	.-228    	; 0x3d8 <dxl_txrx_packet>
     4bc:	80 91 29 0a 	lds	r24, 0x0A29
     4c0:	90 e0       	ldi	r25, 0x00	; 0
     4c2:	08 95       	ret
     4c4:	ff cf       	rjmp	.-2      	; 0x4c4 <dxl_read_byte+0x32>

000004c6 <dxl_ping>:
     4c6:	28 2f       	mov	r18, r24
     4c8:	80 91 6c 0a 	lds	r24, 0x0A6C
     4cc:	90 91 6d 0a 	lds	r25, 0x0A6D
     4d0:	89 2b       	or	r24, r25
     4d2:	51 f4       	brne	.+20     	; 0x4e8 <dxl_ping+0x22>
     4d4:	20 93 86 09 	sts	0x0986, r18
     4d8:	81 e0       	ldi	r24, 0x01	; 1
     4da:	80 93 88 09 	sts	0x0988, r24
     4de:	82 e0       	ldi	r24, 0x02	; 2
     4e0:	80 93 87 09 	sts	0x0987, r24
     4e4:	79 cf       	rjmp	.-270    	; 0x3d8 <dxl_txrx_packet>
     4e6:	08 95       	ret
     4e8:	ff cf       	rjmp	.-2      	; 0x4e8 <dxl_ping+0x22>

000004ea <dxl_terminate>:
     4ea:	86 c0       	rjmp	.+268    	; 0x5f8 <dxl_hal_close>
     4ec:	08 95       	ret

000004ee <dxl_initialize>:
     4ee:	0f 93       	push	r16
     4f0:	1f 93       	push	r17
     4f2:	8c 01       	movw	r16, r24
     4f4:	6f 5f       	subi	r22, 0xFF	; 255
     4f6:	7f 4f       	sbci	r23, 0xFF	; 255
     4f8:	88 27       	eor	r24, r24
     4fa:	77 fd       	sbrc	r23, 7
     4fc:	80 95       	com	r24
     4fe:	98 2f       	mov	r25, r24
     500:	0e 94 fa 0f 	call	0x1ff4	; 0x1ff4 <__floatsisf>
     504:	9b 01       	movw	r18, r22
     506:	ac 01       	movw	r20, r24
     508:	60 e0       	ldi	r22, 0x00	; 0
     50a:	74 e2       	ldi	r23, 0x24	; 36
     50c:	84 ef       	ldi	r24, 0xF4	; 244
     50e:	99 e4       	ldi	r25, 0x49	; 73
     510:	0e 94 5f 0f 	call	0x1ebe	; 0x1ebe <__divsf3>
     514:	ab 01       	movw	r20, r22
     516:	bc 01       	movw	r22, r24
     518:	c8 01       	movw	r24, r16
     51a:	15 d0       	rcall	.+42     	; 0x546 <dxl_hal_open>
     51c:	89 2b       	or	r24, r25
     51e:	19 f4       	brne	.+6      	; 0x526 <dxl_initialize+0x38>
     520:	20 e0       	ldi	r18, 0x00	; 0
     522:	30 e0       	ldi	r19, 0x00	; 0
     524:	0c c0       	rjmp	.+24     	; 0x53e <dxl_initialize+0x50>
     526:	81 e0       	ldi	r24, 0x01	; 1
     528:	90 e0       	ldi	r25, 0x00	; 0
     52a:	90 93 01 02 	sts	0x0201, r25
     52e:	80 93 00 02 	sts	0x0200, r24
     532:	10 92 6d 0a 	sts	0x0A6D, r1
     536:	10 92 6c 0a 	sts	0x0A6C, r1
     53a:	21 e0       	ldi	r18, 0x01	; 1
     53c:	30 e0       	ldi	r19, 0x00	; 0
     53e:	c9 01       	movw	r24, r18
     540:	1f 91       	pop	r17
     542:	0f 91       	pop	r16
     544:	08 95       	ret

00000546 <dxl_hal_open>:
     546:	ef 92       	push	r14
     548:	ff 92       	push	r15
     54a:	0f 93       	push	r16
     54c:	1f 93       	push	r17
     54e:	7a 01       	movw	r14, r20
     550:	8b 01       	movw	r16, r22
     552:	82 e4       	ldi	r24, 0x42	; 66
     554:	80 93 c0 00 	sts	0x00C0, r24
     558:	88 e9       	ldi	r24, 0x98	; 152
     55a:	80 93 c1 00 	sts	0x00C1, r24
     55e:	86 e0       	ldi	r24, 0x06	; 6
     560:	80 93 c2 00 	sts	0x00C2, r24
     564:	60 e0       	ldi	r22, 0x00	; 0
     566:	74 e2       	ldi	r23, 0x24	; 36
     568:	84 ef       	ldi	r24, 0xF4	; 244
     56a:	99 e4       	ldi	r25, 0x49	; 73
     56c:	a8 01       	movw	r20, r16
     56e:	97 01       	movw	r18, r14
     570:	0e 94 5f 0f 	call	0x1ebe	; 0x1ebe <__divsf3>
     574:	0e 94 cc 0f 	call	0x1f98	; 0x1f98 <__fixunssfsi>
     578:	61 50       	subi	r22, 0x01	; 1
     57a:	70 40       	sbci	r23, 0x00	; 0
     57c:	70 93 c5 00 	sts	0x00C5, r23
     580:	60 93 c4 00 	sts	0x00C4, r22
     584:	60 e0       	ldi	r22, 0x00	; 0
     586:	74 e2       	ldi	r23, 0x24	; 36
     588:	84 e7       	ldi	r24, 0x74	; 116
     58a:	99 e4       	ldi	r25, 0x49	; 73
     58c:	a8 01       	movw	r20, r16
     58e:	97 01       	movw	r18, r14
     590:	0e 94 5f 0f 	call	0x1ebe	; 0x1ebe <__divsf3>
     594:	20 e0       	ldi	r18, 0x00	; 0
     596:	30 e0       	ldi	r19, 0x00	; 0
     598:	40 e4       	ldi	r20, 0x40	; 64
     59a:	51 e4       	ldi	r21, 0x41	; 65
     59c:	0e 94 86 10 	call	0x210c	; 0x210c <__mulsf3>
     5a0:	60 93 32 0d 	sts	0x0D32, r22
     5a4:	70 93 33 0d 	sts	0x0D33, r23
     5a8:	80 93 34 0d 	sts	0x0D34, r24
     5ac:	90 93 35 0d 	sts	0x0D35, r25
     5b0:	20 91 32 0d 	lds	r18, 0x0D32
     5b4:	30 91 33 0d 	lds	r19, 0x0D33
     5b8:	40 91 34 0d 	lds	r20, 0x0D34
     5bc:	50 91 35 0d 	lds	r21, 0x0D35
     5c0:	60 e0       	ldi	r22, 0x00	; 0
     5c2:	70 e0       	ldi	r23, 0x00	; 0
     5c4:	8a e7       	ldi	r24, 0x7A	; 122
     5c6:	93 e4       	ldi	r25, 0x43	; 67
     5c8:	0e 94 5f 0f 	call	0x1ebe	; 0x1ebe <__divsf3>
     5cc:	0e 94 cc 0f 	call	0x1f98	; 0x1f98 <__fixunssfsi>
     5d0:	70 93 31 0d 	sts	0x0D31, r23
     5d4:	60 93 30 0d 	sts	0x0D30, r22
     5d8:	72 98       	cbi	0x0e, 2	; 14
     5da:	73 9a       	sbi	0x0e, 3	; 14
     5dc:	8f ef       	ldi	r24, 0xFF	; 255
     5de:	80 93 c6 00 	sts	0x00C6, r24
     5e2:	10 92 6e 0b 	sts	0x0B6E, r1
     5e6:	10 92 6f 0b 	sts	0x0B6F, r1
     5ea:	81 e0       	ldi	r24, 0x01	; 1
     5ec:	90 e0       	ldi	r25, 0x00	; 0
     5ee:	1f 91       	pop	r17
     5f0:	0f 91       	pop	r16
     5f2:	ff 90       	pop	r15
     5f4:	ef 90       	pop	r14
     5f6:	08 95       	ret

000005f8 <dxl_hal_close>:
     5f8:	08 95       	ret

000005fa <dxl_hal_clear>:
     5fa:	80 91 6f 0b 	lds	r24, 0x0B6F
     5fe:	80 93 6e 0b 	sts	0x0B6E, r24
     602:	08 95       	ret

00000604 <dxl_hal_tx>:
     604:	ac 01       	movw	r20, r24
     606:	f8 94       	cli
     608:	73 98       	cbi	0x0e, 3	; 14
     60a:	72 9a       	sbi	0x0e, 2	; 14
     60c:	20 e0       	ldi	r18, 0x00	; 0
     60e:	30 e0       	ldi	r19, 0x00	; 0
     610:	11 c0       	rjmp	.+34     	; 0x634 <dxl_hal_tx+0x30>
     612:	80 91 c0 00 	lds	r24, 0x00C0
     616:	85 ff       	sbrs	r24, 5
     618:	fc cf       	rjmp	.-8      	; 0x612 <dxl_hal_tx+0xe>
     61a:	80 91 c0 00 	lds	r24, 0x00C0
     61e:	80 64       	ori	r24, 0x40	; 64
     620:	80 93 c0 00 	sts	0x00C0, r24
     624:	fa 01       	movw	r30, r20
     626:	e2 0f       	add	r30, r18
     628:	f3 1f       	adc	r31, r19
     62a:	80 81       	ld	r24, Z
     62c:	80 93 c6 00 	sts	0x00C6, r24
     630:	2f 5f       	subi	r18, 0xFF	; 255
     632:	3f 4f       	sbci	r19, 0xFF	; 255
     634:	26 17       	cp	r18, r22
     636:	37 07       	cpc	r19, r23
     638:	64 f3       	brlt	.-40     	; 0x612 <dxl_hal_tx+0xe>
     63a:	80 91 c0 00 	lds	r24, 0x00C0
     63e:	86 ff       	sbrs	r24, 6
     640:	fc cf       	rjmp	.-8      	; 0x63a <dxl_hal_tx+0x36>
     642:	72 98       	cbi	0x0e, 2	; 14
     644:	73 9a       	sbi	0x0e, 3	; 14
     646:	78 94       	sei
     648:	c9 01       	movw	r24, r18
     64a:	08 95       	ret

0000064c <dxl_hal_set_timeout>:
     64c:	10 92 39 0d 	sts	0x0D39, r1
     650:	10 92 38 0d 	sts	0x0D38, r1
     654:	20 91 30 0d 	lds	r18, 0x0D30
     658:	30 91 31 0d 	lds	r19, 0x0D31
     65c:	26 5f       	subi	r18, 0xF6	; 246
     65e:	3f 4f       	sbci	r19, 0xFF	; 255
     660:	28 0f       	add	r18, r24
     662:	39 1f       	adc	r19, r25
     664:	30 93 37 0d 	sts	0x0D37, r19
     668:	20 93 36 0d 	sts	0x0D36, r18
     66c:	08 95       	ret

0000066e <dxl_hal_timeout>:
     66e:	af 92       	push	r10
     670:	bf 92       	push	r11
     672:	cf 92       	push	r12
     674:	df 92       	push	r13
     676:	ef 92       	push	r14
     678:	ff 92       	push	r15
     67a:	0f 93       	push	r16
     67c:	1f 93       	push	r17
     67e:	80 91 38 0d 	lds	r24, 0x0D38
     682:	90 91 39 0d 	lds	r25, 0x0D39
     686:	01 96       	adiw	r24, 0x01	; 1
     688:	90 93 39 0d 	sts	0x0D39, r25
     68c:	80 93 38 0d 	sts	0x0D38, r24
     690:	20 91 38 0d 	lds	r18, 0x0D38
     694:	30 91 39 0d 	lds	r19, 0x0D39
     698:	80 91 36 0d 	lds	r24, 0x0D36
     69c:	90 91 37 0d 	lds	r25, 0x0D37
     6a0:	82 17       	cp	r24, r18
     6a2:	93 07       	cpc	r25, r19
     6a4:	18 f4       	brcc	.+6      	; 0x6ac <dxl_hal_timeout+0x3e>
     6a6:	21 e0       	ldi	r18, 0x01	; 1
     6a8:	30 e0       	ldi	r19, 0x00	; 0
     6aa:	74 c0       	rjmp	.+232    	; 0x794 <dxl_hal_timeout+0x126>
     6ac:	a0 90 32 0d 	lds	r10, 0x0D32
     6b0:	b0 90 33 0d 	lds	r11, 0x0D33
     6b4:	c0 90 34 0d 	lds	r12, 0x0D34
     6b8:	d0 90 35 0d 	lds	r13, 0x0D35
 */
void
_delay_us(double __us)
{
	uint8_t __ticks;
	double __tmp = ((F_CPU) / 3e6) * __us;
     6bc:	c6 01       	movw	r24, r12
     6be:	b5 01       	movw	r22, r10
     6c0:	2b ea       	ldi	r18, 0xAB	; 171
     6c2:	3a ea       	ldi	r19, 0xAA	; 170
     6c4:	4a ea       	ldi	r20, 0xAA	; 170
     6c6:	50 e4       	ldi	r21, 0x40	; 64
     6c8:	0e 94 86 10 	call	0x210c	; 0x210c <__mulsf3>
     6cc:	7b 01       	movw	r14, r22
     6ce:	8c 01       	movw	r16, r24
	if (__tmp < 1.0)
     6d0:	20 e0       	ldi	r18, 0x00	; 0
     6d2:	30 e0       	ldi	r19, 0x00	; 0
     6d4:	40 e8       	ldi	r20, 0x80	; 128
     6d6:	5f e3       	ldi	r21, 0x3F	; 63
     6d8:	0e 94 e9 10 	call	0x21d2	; 0x21d2 <__cmpsf2>
     6dc:	88 23       	and	r24, r24
     6de:	14 f4       	brge	.+4      	; 0x6e4 <dxl_hal_timeout+0x76>
     6e0:	61 e0       	ldi	r22, 0x01	; 1
     6e2:	54 c0       	rjmp	.+168    	; 0x78c <dxl_hal_timeout+0x11e>
		__ticks = 1;
	else if (__tmp > 255)
     6e4:	c8 01       	movw	r24, r16
     6e6:	b7 01       	movw	r22, r14
     6e8:	20 e0       	ldi	r18, 0x00	; 0
     6ea:	30 e0       	ldi	r19, 0x00	; 0
     6ec:	4f e7       	ldi	r20, 0x7F	; 127
     6ee:	53 e4       	ldi	r21, 0x43	; 67
     6f0:	0e 94 11 11 	call	0x2222	; 0x2222 <__gesf2>
     6f4:	18 16       	cp	r1, r24
     6f6:	0c f0       	brlt	.+2      	; 0x6fa <dxl_hal_timeout+0x8c>
     6f8:	45 c0       	rjmp	.+138    	; 0x784 <dxl_hal_timeout+0x116>
	{
		_delay_ms(__us / 1000.0);
     6fa:	c6 01       	movw	r24, r12
     6fc:	b5 01       	movw	r22, r10
     6fe:	20 e0       	ldi	r18, 0x00	; 0
     700:	30 e0       	ldi	r19, 0x00	; 0
     702:	4a e7       	ldi	r20, 0x7A	; 122
     704:	54 e4       	ldi	r21, 0x44	; 68
     706:	0e 94 5f 0f 	call	0x1ebe	; 0x1ebe <__divsf3>
     70a:	5b 01       	movw	r10, r22
     70c:	6c 01       	movw	r12, r24
 */
void
_delay_ms(double __ms)
{
	uint16_t __ticks;
	double __tmp = ((F_CPU) / 4e3) * __ms;
     70e:	20 e0       	ldi	r18, 0x00	; 0
     710:	30 e0       	ldi	r19, 0x00	; 0
     712:	4a e7       	ldi	r20, 0x7A	; 122
     714:	55 e4       	ldi	r21, 0x45	; 69
     716:	0e 94 86 10 	call	0x210c	; 0x210c <__mulsf3>
     71a:	7b 01       	movw	r14, r22
     71c:	8c 01       	movw	r16, r24
	if (__tmp < 1.0)
     71e:	20 e0       	ldi	r18, 0x00	; 0
     720:	30 e0       	ldi	r19, 0x00	; 0
     722:	40 e8       	ldi	r20, 0x80	; 128
     724:	5f e3       	ldi	r21, 0x3F	; 63
     726:	0e 94 e9 10 	call	0x21d2	; 0x21d2 <__cmpsf2>
     72a:	88 23       	and	r24, r24
     72c:	1c f4       	brge	.+6      	; 0x734 <dxl_hal_timeout+0xc6>
     72e:	61 e0       	ldi	r22, 0x01	; 1
     730:	70 e0       	ldi	r23, 0x00	; 0
     732:	24 c0       	rjmp	.+72     	; 0x77c <dxl_hal_timeout+0x10e>
		__ticks = 1;
	else if (__tmp > 65535)
     734:	c8 01       	movw	r24, r16
     736:	b7 01       	movw	r22, r14
     738:	20 e0       	ldi	r18, 0x00	; 0
     73a:	3f ef       	ldi	r19, 0xFF	; 255
     73c:	4f e7       	ldi	r20, 0x7F	; 127
     73e:	57 e4       	ldi	r21, 0x47	; 71
     740:	0e 94 11 11 	call	0x2222	; 0x2222 <__gesf2>
     744:	18 16       	cp	r1, r24
     746:	b4 f4       	brge	.+44     	; 0x774 <dxl_hal_timeout+0x106>
	{
		//	__ticks = requested delay in 1/10 ms
		__ticks = (uint16_t) (__ms * 10.0);
     748:	c6 01       	movw	r24, r12
     74a:	b5 01       	movw	r22, r10
     74c:	20 e0       	ldi	r18, 0x00	; 0
     74e:	30 e0       	ldi	r19, 0x00	; 0
     750:	40 e2       	ldi	r20, 0x20	; 32
     752:	51 e4       	ldi	r21, 0x41	; 65
     754:	0e 94 86 10 	call	0x210c	; 0x210c <__mulsf3>
     758:	0e 94 cc 0f 	call	0x1f98	; 0x1f98 <__fixunssfsi>
    milliseconds can be achieved.
 */
void
_delay_loop_2(uint16_t __count)
{
	__asm__ volatile (
     75c:	80 e9       	ldi	r24, 0x90	; 144
     75e:	91 e0       	ldi	r25, 0x01	; 1
     760:	05 c0       	rjmp	.+10     	; 0x76c <dxl_hal_timeout+0xfe>
     762:	fc 01       	movw	r30, r24
     764:	31 97       	sbiw	r30, 0x01	; 1
     766:	f1 f7       	brne	.-4      	; 0x764 <dxl_hal_timeout+0xf6>
		while(__ticks)
		{
			// wait 1/10 ms
			_delay_loop_2(((F_CPU) / 4e3) / 10);
			__ticks --;
     768:	61 50       	subi	r22, 0x01	; 1
     76a:	70 40       	sbci	r23, 0x00	; 0
		__ticks = 1;
	else if (__tmp > 65535)
	{
		//	__ticks = requested delay in 1/10 ms
		__ticks = (uint16_t) (__ms * 10.0);
		while(__ticks)
     76c:	61 15       	cp	r22, r1
     76e:	71 05       	cpc	r23, r1
     770:	c1 f7       	brne	.-16     	; 0x762 <dxl_hal_timeout+0xf4>
     772:	0e c0       	rjmp	.+28     	; 0x790 <dxl_hal_timeout+0x122>
			__ticks --;
		}
		return;
	}
	else
		__ticks = (uint16_t)__tmp;
     774:	c8 01       	movw	r24, r16
     776:	b7 01       	movw	r22, r14
     778:	0e 94 cc 0f 	call	0x1f98	; 0x1f98 <__fixunssfsi>
     77c:	cb 01       	movw	r24, r22
     77e:	01 97       	sbiw	r24, 0x01	; 1
     780:	f1 f7       	brne	.-4      	; 0x77e <dxl_hal_timeout+0x110>
     782:	06 c0       	rjmp	.+12     	; 0x790 <dxl_hal_timeout+0x122>
	{
		_delay_ms(__us / 1000.0);
		return;
	}
	else
		__ticks = (uint8_t)__tmp;
     784:	c8 01       	movw	r24, r16
     786:	b7 01       	movw	r22, r14
     788:	0e 94 cc 0f 	call	0x1f98	; 0x1f98 <__fixunssfsi>
    can be achieved.
*/
void
_delay_loop_1(uint8_t __count)
{
	__asm__ volatile (
     78c:	6a 95       	dec	r22
     78e:	f1 f7       	brne	.-4      	; 0x78c <dxl_hal_timeout+0x11e>
     790:	20 e0       	ldi	r18, 0x00	; 0
     792:	30 e0       	ldi	r19, 0x00	; 0
     794:	c9 01       	movw	r24, r18
     796:	1f 91       	pop	r17
     798:	0f 91       	pop	r16
     79a:	ff 90       	pop	r15
     79c:	ef 90       	pop	r14
     79e:	df 90       	pop	r13
     7a0:	cf 90       	pop	r12
     7a2:	bf 90       	pop	r11
     7a4:	af 90       	pop	r10
     7a6:	08 95       	ret

000007a8 <dxl_hal_get_qstate>:
     7a8:	90 91 6e 0b 	lds	r25, 0x0B6E
     7ac:	80 91 6f 0b 	lds	r24, 0x0B6F
     7b0:	98 17       	cp	r25, r24
     7b2:	19 f4       	brne	.+6      	; 0x7ba <dxl_hal_get_qstate+0x12>
     7b4:	20 e0       	ldi	r18, 0x00	; 0
     7b6:	30 e0       	ldi	r19, 0x00	; 0
     7b8:	17 c0       	rjmp	.+46     	; 0x7e8 <dxl_hal_get_qstate+0x40>
     7ba:	90 91 6e 0b 	lds	r25, 0x0B6E
     7be:	80 91 6f 0b 	lds	r24, 0x0B6F
     7c2:	98 17       	cp	r25, r24
     7c4:	38 f4       	brcc	.+14     	; 0x7d4 <dxl_hal_get_qstate+0x2c>
     7c6:	80 91 6f 0b 	lds	r24, 0x0B6F
     7ca:	90 91 6e 0b 	lds	r25, 0x0B6E
     7ce:	28 2f       	mov	r18, r24
     7d0:	30 e0       	ldi	r19, 0x00	; 0
     7d2:	08 c0       	rjmp	.+16     	; 0x7e4 <dxl_hal_get_qstate+0x3c>
     7d4:	80 91 6f 0b 	lds	r24, 0x0B6F
     7d8:	90 91 6e 0b 	lds	r25, 0x0B6E
     7dc:	28 2f       	mov	r18, r24
     7de:	30 e0       	ldi	r19, 0x00	; 0
     7e0:	20 50       	subi	r18, 0x00	; 0
     7e2:	3f 4f       	sbci	r19, 0xFF	; 255
     7e4:	29 1b       	sub	r18, r25
     7e6:	31 09       	sbc	r19, r1
     7e8:	c9 01       	movw	r24, r18
     7ea:	08 95       	ret

000007ec <dxl_hal_put_queue>:
     7ec:	1f 93       	push	r17
     7ee:	18 2f       	mov	r17, r24
     7f0:	db df       	rcall	.-74     	; 0x7a8 <dxl_hal_get_qstate>
     7f2:	8f 3f       	cpi	r24, 0xFF	; 255
     7f4:	91 05       	cpc	r25, r1
     7f6:	91 f0       	breq	.+36     	; 0x81c <dxl_hal_put_queue+0x30>
     7f8:	e0 91 6f 0b 	lds	r30, 0x0B6F
     7fc:	f0 e0       	ldi	r31, 0x00	; 0
     7fe:	e2 59       	subi	r30, 0x92	; 146
     800:	f5 4f       	sbci	r31, 0xF5	; 245
     802:	10 83       	st	Z, r17
     804:	80 91 6f 0b 	lds	r24, 0x0B6F
     808:	8f 3f       	cpi	r24, 0xFF	; 255
     80a:	19 f4       	brne	.+6      	; 0x812 <dxl_hal_put_queue+0x26>
     80c:	10 92 6f 0b 	sts	0x0B6F, r1
     810:	05 c0       	rjmp	.+10     	; 0x81c <dxl_hal_put_queue+0x30>
     812:	80 91 6f 0b 	lds	r24, 0x0B6F
     816:	8f 5f       	subi	r24, 0xFF	; 255
     818:	80 93 6f 0b 	sts	0x0B6F, r24
     81c:	1f 91       	pop	r17
     81e:	08 95       	ret

00000820 <dxl_hal_get_queue>:
     820:	90 91 6e 0b 	lds	r25, 0x0B6E
     824:	80 91 6f 0b 	lds	r24, 0x0B6F
     828:	98 17       	cp	r25, r24
     82a:	11 f4       	brne	.+4      	; 0x830 <dxl_hal_get_queue+0x10>
     82c:	ef ef       	ldi	r30, 0xFF	; 255
     82e:	12 c0       	rjmp	.+36     	; 0x854 <dxl_hal_get_queue+0x34>
     830:	e0 91 6e 0b 	lds	r30, 0x0B6E
     834:	f0 e0       	ldi	r31, 0x00	; 0
     836:	e2 59       	subi	r30, 0x92	; 146
     838:	f5 4f       	sbci	r31, 0xF5	; 245
     83a:	e0 81       	ld	r30, Z
     83c:	80 91 6e 0b 	lds	r24, 0x0B6E
     840:	8f 3f       	cpi	r24, 0xFF	; 255
     842:	19 f4       	brne	.+6      	; 0x84a <dxl_hal_get_queue+0x2a>
     844:	10 92 6e 0b 	sts	0x0B6E, r1
     848:	05 c0       	rjmp	.+10     	; 0x854 <dxl_hal_get_queue+0x34>
     84a:	80 91 6e 0b 	lds	r24, 0x0B6E
     84e:	8f 5f       	subi	r24, 0xFF	; 255
     850:	80 93 6e 0b 	sts	0x0B6E, r24
     854:	8e 2f       	mov	r24, r30
     856:	08 95       	ret

00000858 <dxl_hal_rx>:
     858:	ef 92       	push	r14
     85a:	ff 92       	push	r15
     85c:	0f 93       	push	r16
     85e:	1f 93       	push	r17
     860:	cf 93       	push	r28
     862:	df 93       	push	r29
     864:	7c 01       	movw	r14, r24
     866:	eb 01       	movw	r28, r22
     868:	90 91 6e 0b 	lds	r25, 0x0B6E
     86c:	80 91 6f 0b 	lds	r24, 0x0B6F
     870:	98 17       	cp	r25, r24
     872:	19 f4       	brne	.+6      	; 0x87a <dxl_hal_rx+0x22>
     874:	00 e0       	ldi	r16, 0x00	; 0
     876:	10 e0       	ldi	r17, 0x00	; 0
     878:	12 c0       	rjmp	.+36     	; 0x89e <dxl_hal_rx+0x46>
     87a:	96 df       	rcall	.-212    	; 0x7a8 <dxl_hal_get_qstate>
     87c:	8c 01       	movw	r16, r24
     87e:	c8 17       	cp	r28, r24
     880:	d9 07       	cpc	r29, r25
     882:	0c f4       	brge	.+2      	; 0x886 <dxl_hal_rx+0x2e>
     884:	8e 01       	movw	r16, r28
     886:	c0 e0       	ldi	r28, 0x00	; 0
     888:	d0 e0       	ldi	r29, 0x00	; 0
     88a:	06 c0       	rjmp	.+12     	; 0x898 <dxl_hal_rx+0x40>
     88c:	c9 df       	rcall	.-110    	; 0x820 <dxl_hal_get_queue>
     88e:	f7 01       	movw	r30, r14
     890:	ec 0f       	add	r30, r28
     892:	fd 1f       	adc	r31, r29
     894:	80 83       	st	Z, r24
     896:	21 96       	adiw	r28, 0x01	; 1
     898:	c0 17       	cp	r28, r16
     89a:	d1 07       	cpc	r29, r17
     89c:	bc f3       	brlt	.-18     	; 0x88c <dxl_hal_rx+0x34>
     89e:	c8 01       	movw	r24, r16
     8a0:	df 91       	pop	r29
     8a2:	cf 91       	pop	r28
     8a4:	1f 91       	pop	r17
     8a6:	0f 91       	pop	r16
     8a8:	ff 90       	pop	r15
     8aa:	ef 90       	pop	r14
     8ac:	08 95       	ret

000008ae <__vector_25>:
     8ae:	1f 92       	push	r1
     8b0:	0f 92       	push	r0
     8b2:	0f b6       	in	r0, 0x3f	; 63
     8b4:	0f 92       	push	r0
     8b6:	0b b6       	in	r0, 0x3b	; 59
     8b8:	0f 92       	push	r0
     8ba:	11 24       	eor	r1, r1
     8bc:	2f 93       	push	r18
     8be:	3f 93       	push	r19
     8c0:	4f 93       	push	r20
     8c2:	5f 93       	push	r21
     8c4:	6f 93       	push	r22
     8c6:	7f 93       	push	r23
     8c8:	8f 93       	push	r24
     8ca:	9f 93       	push	r25
     8cc:	af 93       	push	r26
     8ce:	bf 93       	push	r27
     8d0:	ef 93       	push	r30
     8d2:	ff 93       	push	r31
     8d4:	80 91 c6 00 	lds	r24, 0x00C6
     8d8:	89 df       	rcall	.-238    	; 0x7ec <dxl_hal_put_queue>
     8da:	ff 91       	pop	r31
     8dc:	ef 91       	pop	r30
     8de:	bf 91       	pop	r27
     8e0:	af 91       	pop	r26
     8e2:	9f 91       	pop	r25
     8e4:	8f 91       	pop	r24
     8e6:	7f 91       	pop	r23
     8e8:	6f 91       	pop	r22
     8ea:	5f 91       	pop	r21
     8ec:	4f 91       	pop	r20
     8ee:	3f 91       	pop	r19
     8f0:	2f 91       	pop	r18
     8f2:	0f 90       	pop	r0
     8f4:	0b be       	out	0x3b, r0	; 59
     8f6:	0f 90       	pop	r0
     8f8:	0f be       	out	0x3f, r0	; 63
     8fa:	0f 90       	pop	r0
     8fc:	1f 90       	pop	r1
     8fe:	18 95       	reti

00000900 <serial_write>:
     900:	ac 01       	movw	r20, r24
     902:	20 e0       	ldi	r18, 0x00	; 0
     904:	30 e0       	ldi	r19, 0x00	; 0
     906:	0c c0       	rjmp	.+24     	; 0x920 <serial_write+0x20>
     908:	80 91 c8 00 	lds	r24, 0x00C8
     90c:	85 ff       	sbrs	r24, 5
     90e:	fc cf       	rjmp	.-8      	; 0x908 <serial_write+0x8>
     910:	fa 01       	movw	r30, r20
     912:	e2 0f       	add	r30, r18
     914:	f3 1f       	adc	r31, r19
     916:	80 81       	ld	r24, Z
     918:	80 93 ce 00 	sts	0x00CE, r24
     91c:	2f 5f       	subi	r18, 0xFF	; 255
     91e:	3f 4f       	sbci	r19, 0xFF	; 255
     920:	26 17       	cp	r18, r22
     922:	37 07       	cpc	r19, r23
     924:	8c f3       	brlt	.-30     	; 0x908 <serial_write+0x8>
     926:	08 95       	ret

00000928 <serial_read>:
     928:	dc 01       	movw	r26, r24
     92a:	90 91 f0 0b 	lds	r25, 0x0BF0
     92e:	80 91 f1 0b 	lds	r24, 0x0BF1
     932:	98 17       	cp	r25, r24
     934:	11 f4       	brne	.+4      	; 0x93a <serial_read+0x12>
     936:	80 e0       	ldi	r24, 0x00	; 0
     938:	08 95       	ret
     93a:	90 91 f0 0b 	lds	r25, 0x0BF0
     93e:	80 91 f1 0b 	lds	r24, 0x0BF1
     942:	98 17       	cp	r25, r24
     944:	19 f4       	brne	.+6      	; 0x94c <serial_read+0x24>
     946:	20 e0       	ldi	r18, 0x00	; 0
     948:	30 e0       	ldi	r19, 0x00	; 0
     94a:	17 c0       	rjmp	.+46     	; 0x97a <serial_read+0x52>
     94c:	90 91 f0 0b 	lds	r25, 0x0BF0
     950:	80 91 f1 0b 	lds	r24, 0x0BF1
     954:	98 17       	cp	r25, r24
     956:	38 f4       	brcc	.+14     	; 0x966 <serial_read+0x3e>
     958:	80 91 f1 0b 	lds	r24, 0x0BF1
     95c:	90 91 f0 0b 	lds	r25, 0x0BF0
     960:	28 2f       	mov	r18, r24
     962:	30 e0       	ldi	r19, 0x00	; 0
     964:	08 c0       	rjmp	.+16     	; 0x976 <serial_read+0x4e>
     966:	80 91 f1 0b 	lds	r24, 0x0BF1
     96a:	90 91 f0 0b 	lds	r25, 0x0BF0
     96e:	28 2f       	mov	r18, r24
     970:	30 e0       	ldi	r19, 0x00	; 0
     972:	20 58       	subi	r18, 0x80	; 128
     974:	3f 4f       	sbci	r19, 0xFF	; 255
     976:	29 1b       	sub	r18, r25
     978:	31 09       	sbc	r19, r1
     97a:	a9 01       	movw	r20, r18
     97c:	62 17       	cp	r22, r18
     97e:	73 07       	cpc	r23, r19
     980:	0c f4       	brge	.+2      	; 0x984 <serial_read+0x5c>
     982:	ab 01       	movw	r20, r22
     984:	20 e0       	ldi	r18, 0x00	; 0
     986:	30 e0       	ldi	r19, 0x00	; 0
     988:	20 c0       	rjmp	.+64     	; 0x9ca <serial_read+0xa2>
     98a:	90 91 f0 0b 	lds	r25, 0x0BF0
     98e:	80 91 f1 0b 	lds	r24, 0x0BF1
     992:	98 17       	cp	r25, r24
     994:	11 f4       	brne	.+4      	; 0x99a <serial_read+0x72>
     996:	9f ef       	ldi	r25, 0xFF	; 255
     998:	12 c0       	rjmp	.+36     	; 0x9be <serial_read+0x96>
     99a:	e0 91 f0 0b 	lds	r30, 0x0BF0
     99e:	f0 e0       	ldi	r31, 0x00	; 0
     9a0:	e0 59       	subi	r30, 0x90	; 144
     9a2:	f4 4f       	sbci	r31, 0xF4	; 244
     9a4:	90 81       	ld	r25, Z
     9a6:	80 91 f0 0b 	lds	r24, 0x0BF0
     9aa:	8f 37       	cpi	r24, 0x7F	; 127
     9ac:	19 f4       	brne	.+6      	; 0x9b4 <serial_read+0x8c>
     9ae:	10 92 f0 0b 	sts	0x0BF0, r1
     9b2:	05 c0       	rjmp	.+10     	; 0x9be <serial_read+0x96>
     9b4:	80 91 f0 0b 	lds	r24, 0x0BF0
     9b8:	8f 5f       	subi	r24, 0xFF	; 255
     9ba:	80 93 f0 0b 	sts	0x0BF0, r24
     9be:	fd 01       	movw	r30, r26
     9c0:	e2 0f       	add	r30, r18
     9c2:	f3 1f       	adc	r31, r19
     9c4:	90 83       	st	Z, r25
     9c6:	2f 5f       	subi	r18, 0xFF	; 255
     9c8:	3f 4f       	sbci	r19, 0xFF	; 255
     9ca:	24 17       	cp	r18, r20
     9cc:	35 07       	cpc	r19, r21
     9ce:	ec f2       	brlt	.-70     	; 0x98a <serial_read+0x62>
     9d0:	84 2f       	mov	r24, r20
     9d2:	08 95       	ret

000009d4 <serial_get_qstate>:
     9d4:	90 91 f0 0b 	lds	r25, 0x0BF0
     9d8:	80 91 f1 0b 	lds	r24, 0x0BF1
     9dc:	98 17       	cp	r25, r24
     9de:	19 f4       	brne	.+6      	; 0x9e6 <serial_get_qstate+0x12>
     9e0:	20 e0       	ldi	r18, 0x00	; 0
     9e2:	30 e0       	ldi	r19, 0x00	; 0
     9e4:	17 c0       	rjmp	.+46     	; 0xa14 <serial_get_qstate+0x40>
     9e6:	90 91 f0 0b 	lds	r25, 0x0BF0
     9ea:	80 91 f1 0b 	lds	r24, 0x0BF1
     9ee:	98 17       	cp	r25, r24
     9f0:	38 f4       	brcc	.+14     	; 0xa00 <serial_get_qstate+0x2c>
     9f2:	80 91 f1 0b 	lds	r24, 0x0BF1
     9f6:	90 91 f0 0b 	lds	r25, 0x0BF0
     9fa:	28 2f       	mov	r18, r24
     9fc:	30 e0       	ldi	r19, 0x00	; 0
     9fe:	08 c0       	rjmp	.+16     	; 0xa10 <serial_get_qstate+0x3c>
     a00:	80 91 f1 0b 	lds	r24, 0x0BF1
     a04:	90 91 f0 0b 	lds	r25, 0x0BF0
     a08:	28 2f       	mov	r18, r24
     a0a:	30 e0       	ldi	r19, 0x00	; 0
     a0c:	20 58       	subi	r18, 0x80	; 128
     a0e:	3f 4f       	sbci	r19, 0xFF	; 255
     a10:	29 1b       	sub	r18, r25
     a12:	31 09       	sbc	r19, r1
     a14:	c9 01       	movw	r24, r18
     a16:	08 95       	ret

00000a18 <serial_put_queue>:
     a18:	48 2f       	mov	r20, r24
     a1a:	90 91 f0 0b 	lds	r25, 0x0BF0
     a1e:	80 91 f1 0b 	lds	r24, 0x0BF1
     a22:	98 17       	cp	r25, r24
     a24:	d1 f0       	breq	.+52     	; 0xa5a <serial_put_queue+0x42>
     a26:	90 91 f0 0b 	lds	r25, 0x0BF0
     a2a:	80 91 f1 0b 	lds	r24, 0x0BF1
     a2e:	98 17       	cp	r25, r24
     a30:	38 f4       	brcc	.+14     	; 0xa40 <serial_put_queue+0x28>
     a32:	80 91 f1 0b 	lds	r24, 0x0BF1
     a36:	90 91 f0 0b 	lds	r25, 0x0BF0
     a3a:	28 2f       	mov	r18, r24
     a3c:	30 e0       	ldi	r19, 0x00	; 0
     a3e:	08 c0       	rjmp	.+16     	; 0xa50 <serial_put_queue+0x38>
     a40:	80 91 f1 0b 	lds	r24, 0x0BF1
     a44:	90 91 f0 0b 	lds	r25, 0x0BF0
     a48:	28 2f       	mov	r18, r24
     a4a:	30 e0       	ldi	r19, 0x00	; 0
     a4c:	20 58       	subi	r18, 0x80	; 128
     a4e:	3f 4f       	sbci	r19, 0xFF	; 255
     a50:	29 1b       	sub	r18, r25
     a52:	31 09       	sbc	r19, r1
     a54:	2f 37       	cpi	r18, 0x7F	; 127
     a56:	31 05       	cpc	r19, r1
     a58:	91 f0       	breq	.+36     	; 0xa7e <serial_put_queue+0x66>
     a5a:	e0 91 f1 0b 	lds	r30, 0x0BF1
     a5e:	f0 e0       	ldi	r31, 0x00	; 0
     a60:	e0 59       	subi	r30, 0x90	; 144
     a62:	f4 4f       	sbci	r31, 0xF4	; 244
     a64:	40 83       	st	Z, r20
     a66:	80 91 f1 0b 	lds	r24, 0x0BF1
     a6a:	8f 37       	cpi	r24, 0x7F	; 127
     a6c:	19 f4       	brne	.+6      	; 0xa74 <serial_put_queue+0x5c>
     a6e:	10 92 f1 0b 	sts	0x0BF1, r1
     a72:	08 95       	ret
     a74:	80 91 f1 0b 	lds	r24, 0x0BF1
     a78:	8f 5f       	subi	r24, 0xFF	; 255
     a7a:	80 93 f1 0b 	sts	0x0BF1, r24
     a7e:	08 95       	ret

00000a80 <serial_get_queue>:
     a80:	90 91 f0 0b 	lds	r25, 0x0BF0
     a84:	80 91 f1 0b 	lds	r24, 0x0BF1
     a88:	98 17       	cp	r25, r24
     a8a:	11 f4       	brne	.+4      	; 0xa90 <serial_get_queue+0x10>
     a8c:	ef ef       	ldi	r30, 0xFF	; 255
     a8e:	12 c0       	rjmp	.+36     	; 0xab4 <serial_get_queue+0x34>
     a90:	e0 91 f0 0b 	lds	r30, 0x0BF0
     a94:	f0 e0       	ldi	r31, 0x00	; 0
     a96:	e0 59       	subi	r30, 0x90	; 144
     a98:	f4 4f       	sbci	r31, 0xF4	; 244
     a9a:	e0 81       	ld	r30, Z
     a9c:	80 91 f0 0b 	lds	r24, 0x0BF0
     aa0:	8f 37       	cpi	r24, 0x7F	; 127
     aa2:	19 f4       	brne	.+6      	; 0xaaa <serial_get_queue+0x2a>
     aa4:	10 92 f0 0b 	sts	0x0BF0, r1
     aa8:	05 c0       	rjmp	.+10     	; 0xab4 <serial_get_queue+0x34>
     aaa:	80 91 f0 0b 	lds	r24, 0x0BF0
     aae:	8f 5f       	subi	r24, 0xFF	; 255
     ab0:	80 93 f0 0b 	sts	0x0BF0, r24
     ab4:	8e 2f       	mov	r24, r30
     ab6:	08 95       	ret

00000ab8 <__vector_36>:
     ab8:	1f 92       	push	r1
     aba:	0f 92       	push	r0
     abc:	0f b6       	in	r0, 0x3f	; 63
     abe:	0f 92       	push	r0
     ac0:	0b b6       	in	r0, 0x3b	; 59
     ac2:	0f 92       	push	r0
     ac4:	11 24       	eor	r1, r1
     ac6:	2f 93       	push	r18
     ac8:	3f 93       	push	r19
     aca:	4f 93       	push	r20
     acc:	5f 93       	push	r21
     ace:	6f 93       	push	r22
     ad0:	7f 93       	push	r23
     ad2:	8f 93       	push	r24
     ad4:	9f 93       	push	r25
     ad6:	af 93       	push	r26
     ad8:	bf 93       	push	r27
     ada:	ef 93       	push	r30
     adc:	ff 93       	push	r31
     ade:	80 91 ce 00 	lds	r24, 0x00CE
     ae2:	9a df       	rcall	.-204    	; 0xa18 <serial_put_queue>
     ae4:	ff 91       	pop	r31
     ae6:	ef 91       	pop	r30
     ae8:	bf 91       	pop	r27
     aea:	af 91       	pop	r26
     aec:	9f 91       	pop	r25
     aee:	8f 91       	pop	r24
     af0:	7f 91       	pop	r23
     af2:	6f 91       	pop	r22
     af4:	5f 91       	pop	r21
     af6:	4f 91       	pop	r20
     af8:	3f 91       	pop	r19
     afa:	2f 91       	pop	r18
     afc:	0f 90       	pop	r0
     afe:	0b be       	out	0x3b, r0	; 59
     b00:	0f 90       	pop	r0
     b02:	0f be       	out	0x3f, r0	; 63
     b04:	0f 90       	pop	r0
     b06:	1f 90       	pop	r1
     b08:	18 95       	reti

00000b0a <std_putchar>:
     b0a:	df 93       	push	r29
     b0c:	cf 93       	push	r28
     b0e:	0f 92       	push	r0
     b10:	0f 92       	push	r0
     b12:	cd b7       	in	r28, 0x3d	; 61
     b14:	de b7       	in	r29, 0x3e	; 62
     b16:	98 2f       	mov	r25, r24
     b18:	8a 30       	cpi	r24, 0x0A	; 10
     b1a:	99 f4       	brne	.+38     	; 0xb42 <std_putchar+0x38>
     b1c:	8d e0       	ldi	r24, 0x0D	; 13
     b1e:	89 83       	std	Y+1, r24	; 0x01
     b20:	9a 83       	std	Y+2, r25	; 0x02
     b22:	fe 01       	movw	r30, r28
     b24:	31 96       	adiw	r30, 0x01	; 1
     b26:	9e 01       	movw	r18, r28
     b28:	2d 5f       	subi	r18, 0xFD	; 253
     b2a:	3f 4f       	sbci	r19, 0xFF	; 255
     b2c:	80 91 c8 00 	lds	r24, 0x00C8
     b30:	85 ff       	sbrs	r24, 5
     b32:	fc cf       	rjmp	.-8      	; 0xb2c <std_putchar+0x22>
     b34:	81 91       	ld	r24, Z+
     b36:	80 93 ce 00 	sts	0x00CE, r24
     b3a:	e2 17       	cp	r30, r18
     b3c:	f3 07       	cpc	r31, r19
     b3e:	b1 f7       	brne	.-20     	; 0xb2c <std_putchar+0x22>
     b40:	06 c0       	rjmp	.+12     	; 0xb4e <std_putchar+0x44>
     b42:	80 91 c8 00 	lds	r24, 0x00C8
     b46:	85 ff       	sbrs	r24, 5
     b48:	fc cf       	rjmp	.-8      	; 0xb42 <std_putchar+0x38>
     b4a:	90 93 ce 00 	sts	0x00CE, r25
     b4e:	80 e0       	ldi	r24, 0x00	; 0
     b50:	90 e0       	ldi	r25, 0x00	; 0
     b52:	0f 90       	pop	r0
     b54:	0f 90       	pop	r0
     b56:	cf 91       	pop	r28
     b58:	df 91       	pop	r29
     b5a:	08 95       	ret

00000b5c <std_getchar>:
     b5c:	90 91 f0 0b 	lds	r25, 0x0BF0
     b60:	80 91 f1 0b 	lds	r24, 0x0BF1
     b64:	98 17       	cp	r25, r24
     b66:	d1 f3       	breq	.-12     	; 0xb5c <std_getchar>
     b68:	90 91 f0 0b 	lds	r25, 0x0BF0
     b6c:	80 91 f1 0b 	lds	r24, 0x0BF1
     b70:	98 17       	cp	r25, r24
     b72:	38 f4       	brcc	.+14     	; 0xb82 <std_getchar+0x26>
     b74:	80 91 f1 0b 	lds	r24, 0x0BF1
     b78:	90 91 f0 0b 	lds	r25, 0x0BF0
     b7c:	28 2f       	mov	r18, r24
     b7e:	30 e0       	ldi	r19, 0x00	; 0
     b80:	08 c0       	rjmp	.+16     	; 0xb92 <std_getchar+0x36>
     b82:	80 91 f1 0b 	lds	r24, 0x0BF1
     b86:	90 91 f0 0b 	lds	r25, 0x0BF0
     b8a:	28 2f       	mov	r18, r24
     b8c:	30 e0       	ldi	r19, 0x00	; 0
     b8e:	20 58       	subi	r18, 0x80	; 128
     b90:	3f 4f       	sbci	r19, 0xFF	; 255
     b92:	29 1b       	sub	r18, r25
     b94:	31 09       	sbc	r19, r1
     b96:	23 2b       	or	r18, r19
     b98:	09 f3       	breq	.-62     	; 0xb5c <std_getchar>
     b9a:	90 91 f0 0b 	lds	r25, 0x0BF0
     b9e:	80 91 f1 0b 	lds	r24, 0x0BF1
     ba2:	98 17       	cp	r25, r24
     ba4:	11 f4       	brne	.+4      	; 0xbaa <std_getchar+0x4e>
     ba6:	ef ef       	ldi	r30, 0xFF	; 255
     ba8:	15 c0       	rjmp	.+42     	; 0xbd4 <std_getchar+0x78>
     baa:	e0 91 f0 0b 	lds	r30, 0x0BF0
     bae:	f0 e0       	ldi	r31, 0x00	; 0
     bb0:	e0 59       	subi	r30, 0x90	; 144
     bb2:	f4 4f       	sbci	r31, 0xF4	; 244
     bb4:	e0 81       	ld	r30, Z
     bb6:	80 91 f0 0b 	lds	r24, 0x0BF0
     bba:	8f 37       	cpi	r24, 0x7F	; 127
     bbc:	19 f4       	brne	.+6      	; 0xbc4 <std_getchar+0x68>
     bbe:	10 92 f0 0b 	sts	0x0BF0, r1
     bc2:	05 c0       	rjmp	.+10     	; 0xbce <std_getchar+0x72>
     bc4:	80 91 f0 0b 	lds	r24, 0x0BF0
     bc8:	8f 5f       	subi	r24, 0xFF	; 255
     bca:	80 93 f0 0b 	sts	0x0BF0, r24
     bce:	ed 30       	cpi	r30, 0x0D	; 13
     bd0:	09 f4       	brne	.+2      	; 0xbd4 <std_getchar+0x78>
     bd2:	ea e0       	ldi	r30, 0x0A	; 10
     bd4:	8e 2f       	mov	r24, r30
     bd6:	90 e0       	ldi	r25, 0x00	; 0
     bd8:	08 95       	ret

00000bda <serial_initialize>:
     bda:	0e 94 fa 0f 	call	0x1ff4	; 0x1ff4 <__floatsisf>
     bde:	9b 01       	movw	r18, r22
     be0:	ac 01       	movw	r20, r24
     be2:	60 e0       	ldi	r22, 0x00	; 0
     be4:	74 e2       	ldi	r23, 0x24	; 36
     be6:	84 ef       	ldi	r24, 0xF4	; 244
     be8:	99 e4       	ldi	r25, 0x49	; 73
     bea:	0e 94 5f 0f 	call	0x1ebe	; 0x1ebe <__divsf3>
     bee:	0e 94 cc 0f 	call	0x1f98	; 0x1f98 <__fixunssfsi>
     bf2:	61 50       	subi	r22, 0x01	; 1
     bf4:	70 40       	sbci	r23, 0x00	; 0
     bf6:	22 e4       	ldi	r18, 0x42	; 66
     bf8:	20 93 c8 00 	sts	0x00C8, r18
     bfc:	28 e9       	ldi	r18, 0x98	; 152
     bfe:	20 93 c9 00 	sts	0x00C9, r18
     c02:	26 e0       	ldi	r18, 0x06	; 6
     c04:	20 93 ca 00 	sts	0x00CA, r18
     c08:	2f ef       	ldi	r18, 0xFF	; 255
     c0a:	20 93 ce 00 	sts	0x00CE, r18
     c0e:	10 92 f0 0b 	sts	0x0BF0, r1
     c12:	10 92 f1 0b 	sts	0x0BF1, r1
     c16:	27 2f       	mov	r18, r23
     c18:	33 27       	eor	r19, r19
     c1a:	27 fd       	sbrc	r18, 7
     c1c:	3a 95       	dec	r19
     c1e:	20 93 cd 00 	sts	0x00CD, r18
     c22:	60 93 cc 00 	sts	0x00CC, r22
     c26:	72 98       	cbi	0x0e, 2	; 14
     c28:	73 9a       	sbi	0x0e, 3	; 14
     c2a:	85 e8       	ldi	r24, 0x85	; 133
     c2c:	95 e0       	ldi	r25, 0x05	; 5
     c2e:	6e ea       	ldi	r22, 0xAE	; 174
     c30:	75 e0       	ldi	r23, 0x05	; 5
     c32:	0e 94 8b 11 	call	0x2316	; 0x2316 <fdevopen>
     c36:	90 93 f3 0b 	sts	0x0BF3, r25
     c3a:	80 93 f2 0b 	sts	0x0BF2, r24
     c3e:	08 95       	ret

00000c40 <initSerial>:
}

void clearSerialBuffer(){
//	printf( "clearSerialBuffer\n" );
	isRead = 0;
	memset( &readBuffer[0], 0x00, SERIAL_BUFFER_SIZE );
     c40:	60 e0       	ldi	r22, 0x00	; 0
     c42:	71 ee       	ldi	r23, 0xE1	; 225
     c44:	80 e0       	ldi	r24, 0x00	; 0
     c46:	90 e0       	ldi	r25, 0x00	; 0
     c48:	c8 df       	rcall	.-112    	; 0xbda <serial_initialize>
     c4a:	78 94       	sei
     c4c:	08 95       	ret

00000c4e <checkSerialRead>:
}

int checkSerialRead(void){
	int ret = 0;
	if( serial_get_qstate() > 0 ){
     c4e:	c2 de       	rcall	.-636    	; 0x9d4 <serial_get_qstate>
     c50:	18 16       	cp	r1, r24
     c52:	19 06       	cpc	r1, r25
     c54:	0c f0       	brlt	.+2      	; 0xc58 <checkSerialRead+0xa>
     c56:	3f c0       	rjmp	.+126    	; 0xcd6 <checkSerialRead+0x88>
		unsigned char ReceivedData = getchar();
     c58:	80 91 3a 0d 	lds	r24, 0x0D3A
     c5c:	90 91 3b 0d 	lds	r25, 0x0D3B
     c60:	0e 94 d5 11 	call	0x23aa	; 0x23aa <fgetc>
//		printf( "checkSerialRead %d\n", ReceivedData );
		if( ReceivedData == 10 || ReceivedData == 13 ){
     c64:	8a 30       	cpi	r24, 0x0A	; 10
     c66:	11 f0       	breq	.+4      	; 0xc6c <checkSerialRead+0x1e>
     c68:	8d 30       	cpi	r24, 0x0D	; 13
     c6a:	91 f4       	brne	.+36     	; 0xc90 <checkSerialRead+0x42>
			if( buffCnt > 0 ){
     c6c:	80 91 46 0c 	lds	r24, 0x0C46
     c70:	90 91 47 0c 	lds	r25, 0x0C47
     c74:	18 16       	cp	r1, r24
     c76:	19 06       	cpc	r1, r25
     c78:	8c f5       	brge	.+98     	; 0xcdc <checkSerialRead+0x8e>
				buffCnt = 0;
     c7a:	10 92 47 0c 	sts	0x0C47, r1
     c7e:	10 92 46 0c 	sts	0x0C46, r1
				isRead = 1;
     c82:	81 e0       	ldi	r24, 0x01	; 1
     c84:	90 e0       	ldi	r25, 0x00	; 0
     c86:	90 93 49 0c 	sts	0x0C49, r25
     c8a:	80 93 48 0c 	sts	0x0C48, r24
     c8e:	08 95       	ret
				ret = 1;
			}
		}else if( ReceivedData > 0 ){
     c90:	88 23       	and	r24, r24
     c92:	39 f1       	breq	.+78     	; 0xce2 <checkSerialRead+0x94>
			readBuffer[buffCnt++] = ReceivedData;
     c94:	20 91 46 0c 	lds	r18, 0x0C46
     c98:	30 91 47 0c 	lds	r19, 0x0C47
     c9c:	a9 01       	movw	r20, r18
     c9e:	4f 5f       	subi	r20, 0xFF	; 255
     ca0:	5f 4f       	sbci	r21, 0xFF	; 255
     ca2:	50 93 47 0c 	sts	0x0C47, r21
     ca6:	40 93 46 0c 	sts	0x0C46, r20
     caa:	f9 01       	movw	r30, r18
     cac:	ea 50       	subi	r30, 0x0A	; 10
     cae:	f4 4f       	sbci	r31, 0xF4	; 244
     cb0:	80 83       	st	Z, r24
			if( buffCnt >= SERIAL_BUFFER_SIZE-1 ){
     cb2:	80 91 46 0c 	lds	r24, 0x0C46
     cb6:	90 91 47 0c 	lds	r25, 0x0C47
     cba:	8f 34       	cpi	r24, 0x4F	; 79
     cbc:	91 05       	cpc	r25, r1
     cbe:	a4 f0       	brlt	.+40     	; 0xce8 <checkSerialRead+0x9a>
				buffCnt = 0;
     cc0:	10 92 47 0c 	sts	0x0C47, r1
     cc4:	10 92 46 0c 	sts	0x0C46, r1
				isRead = 1;
     cc8:	81 e0       	ldi	r24, 0x01	; 1
     cca:	90 e0       	ldi	r25, 0x00	; 0
     ccc:	90 93 49 0c 	sts	0x0C49, r25
     cd0:	80 93 48 0c 	sts	0x0C48, r24
     cd4:	08 95       	ret
	isRead = 0;
	memset( &readBuffer[0], 0x00, SERIAL_BUFFER_SIZE );
}

int checkSerialRead(void){
	int ret = 0;
     cd6:	80 e0       	ldi	r24, 0x00	; 0
     cd8:	90 e0       	ldi	r25, 0x00	; 0
     cda:	08 95       	ret
     cdc:	80 e0       	ldi	r24, 0x00	; 0
     cde:	90 e0       	ldi	r25, 0x00	; 0
     ce0:	08 95       	ret
     ce2:	80 e0       	ldi	r24, 0x00	; 0
     ce4:	90 e0       	ldi	r25, 0x00	; 0
     ce6:	08 95       	ret
     ce8:	80 e0       	ldi	r24, 0x00	; 0
     cea:	90 e0       	ldi	r25, 0x00	; 0
			}
		}
//		printf( "readBuffer %s\n", &readBuffer[0] );
	}
	return ret;
}
     cec:	08 95       	ret

00000cee <getReadBuffer>:

char * getReadBuffer(){
//	printf( "getReadBuffer %d\n", isRead );
	char * ret = NULL;
	if( isRead > 0 ){
     cee:	80 91 48 0c 	lds	r24, 0x0C48
     cf2:	90 91 49 0c 	lds	r25, 0x0C49
     cf6:	18 16       	cp	r1, r24
     cf8:	19 06       	cpc	r1, r25
     cfa:	3c f4       	brge	.+14     	; 0xd0a <getReadBuffer+0x1c>
			//memset( &readBuffer[0], 0x00, BUFFER_SIZE );
			//isRead = 0;
			//printf( "ret=%s\n", ret );
		//}
		ret = &readBuffer[0];
		isRead = 0;
     cfc:	10 92 49 0c 	sts	0x0C49, r1
     d00:	10 92 48 0c 	sts	0x0C48, r1
			//memcpy( &ret, &readBuffer, sizeof(unsigned char) * BUFFER_SIZE );
			//memset( &readBuffer[0], 0x00, BUFFER_SIZE );
			//isRead = 0;
			//printf( "ret=%s\n", ret );
		//}
		ret = &readBuffer[0];
     d04:	86 ef       	ldi	r24, 0xF6	; 246
     d06:	9b e0       	ldi	r25, 0x0B	; 11
     d08:	08 95       	ret
	return ret;
}

char * getReadBuffer(){
//	printf( "getReadBuffer %d\n", isRead );
	char * ret = NULL;
     d0a:	80 e0       	ldi	r24, 0x00	; 0
     d0c:	90 e0       	ldi	r25, 0x00	; 0
		//}
		ret = &readBuffer[0];
		isRead = 0;
	}
	return ret;	
}
     d0e:	08 95       	ret

00000d10 <sensorInit>:
	}else{
		PrintCommStatus(CommStatus);
	}
}

void ServoReadState(){
     d10:	88 e2       	ldi	r24, 0x28	; 40
     d12:	96 e0       	ldi	r25, 0x06	; 6
     d14:	0e 94 24 12 	call	0x2448	; 0x2448 <puts>
     d18:	60 e0       	ldi	r22, 0x00	; 0
     d1a:	71 ee       	ldi	r23, 0xE1	; 225
     d1c:	80 e0       	ldi	r24, 0x00	; 0
     d1e:	90 e0       	ldi	r25, 0x00	; 0
     d20:	5c df       	rcall	.-328    	; 0xbda <serial_initialize>
     d22:	78 94       	sei
     d24:	86 e8       	ldi	r24, 0x86	; 134
     d26:	80 93 7a 00 	sts	0x007A, r24
     d2a:	81 e0       	ldi	r24, 0x01	; 1
     d2c:	80 93 7c 00 	sts	0x007C, r24
     d30:	08 95       	ret

00000d32 <sensorTest>:
     d32:	81 30       	cpi	r24, 0x01	; 1
     d34:	91 05       	cpc	r25, r1
     d36:	51 f0       	breq	.+20     	; 0xd4c <sensorTest+0x1a>
     d38:	82 30       	cpi	r24, 0x02	; 2
     d3a:	91 05       	cpc	r25, r1
     d3c:	61 f0       	breq	.+24     	; 0xd56 <sensorTest+0x24>
     d3e:	00 97       	sbiw	r24, 0x00	; 0
     d40:	71 f4       	brne	.+28     	; 0xd5e <sensorTest+0x2c>
     d42:	21 e0       	ldi	r18, 0x01	; 1
     d44:	20 93 7c 00 	sts	0x007C, r18
     d48:	17 98       	cbi	0x02, 7	; 2
     d4a:	09 c0       	rjmp	.+18     	; 0xd5e <sensorTest+0x2c>
     d4c:	22 e0       	ldi	r18, 0x02	; 2
     d4e:	20 93 7c 00 	sts	0x007C, r18
     d52:	16 98       	cbi	0x02, 6	; 2
     d54:	04 c0       	rjmp	.+8      	; 0xd5e <sensorTest+0x2c>
     d56:	23 e0       	ldi	r18, 0x03	; 3
     d58:	20 93 7c 00 	sts	0x007C, r18
     d5c:	15 98       	cbi	0x02, 5	; 2
     d5e:	24 e0       	ldi	r18, 0x04	; 4
     d60:	2a 95       	dec	r18
     d62:	f1 f7       	brne	.-4      	; 0xd60 <sensorTest+0x2e>
     d64:	ea e7       	ldi	r30, 0x7A	; 122
     d66:	f0 e0       	ldi	r31, 0x00	; 0
     d68:	20 81       	ld	r18, Z
     d6a:	20 61       	ori	r18, 0x10	; 16
     d6c:	20 83       	st	Z, r18
     d6e:	20 81       	ld	r18, Z
     d70:	20 64       	ori	r18, 0x40	; 64
     d72:	20 83       	st	Z, r18
     d74:	20 81       	ld	r18, Z
     d76:	24 ff       	sbrs	r18, 4
     d78:	fd cf       	rjmp	.-6      	; 0xd74 <sensorTest+0x42>
     d7a:	2e ef       	ldi	r18, 0xFE	; 254
     d7c:	22 b9       	out	0x02, r18	; 2
     d7e:	9c 01       	movw	r18, r24
     d80:	22 0f       	add	r18, r18
     d82:	33 1f       	adc	r19, r19
     d84:	22 0f       	add	r18, r18
     d86:	33 1f       	adc	r19, r19
     d88:	22 0f       	add	r18, r18
     d8a:	33 1f       	adc	r19, r19
     d8c:	fc 01       	movw	r30, r24
     d8e:	ee 0f       	add	r30, r30
     d90:	ff 1f       	adc	r31, r31
     d92:	e2 0f       	add	r30, r18
     d94:	f3 1f       	adc	r31, r19
     d96:	ee 5e       	subi	r30, 0xEE	; 238
     d98:	f2 4f       	sbci	r31, 0xF2	; 242
     d9a:	60 e0       	ldi	r22, 0x00	; 0
     d9c:	70 e0       	ldi	r23, 0x00	; 0
     d9e:	20 e0       	ldi	r18, 0x00	; 0
     da0:	30 e0       	ldi	r19, 0x00	; 0
     da2:	2f 5f       	subi	r18, 0xFF	; 255
     da4:	3f 4f       	sbci	r19, 0xFF	; 255
     da6:	42 81       	ldd	r20, Z+2	; 0x02
     da8:	53 81       	ldd	r21, Z+3	; 0x03
     daa:	41 93       	st	Z+, r20
     dac:	51 93       	st	Z+, r21
     dae:	64 0f       	add	r22, r20
     db0:	75 1f       	adc	r23, r21
     db2:	24 30       	cpi	r18, 0x04	; 4
     db4:	31 05       	cpc	r19, r1
     db6:	a9 f7       	brne	.-22     	; 0xda2 <sensorTest+0x70>
     db8:	20 91 78 00 	lds	r18, 0x0078
     dbc:	30 91 79 00 	lds	r19, 0x0079
     dc0:	ac 01       	movw	r20, r24
     dc2:	4f 5f       	subi	r20, 0xFF	; 255
     dc4:	5f 4f       	sbci	r21, 0xFF	; 255
     dc6:	fa 01       	movw	r30, r20
     dc8:	ee 0f       	add	r30, r30
     dca:	ff 1f       	adc	r31, r31
     dcc:	44 0f       	add	r20, r20
     dce:	55 1f       	adc	r21, r21
     dd0:	44 0f       	add	r20, r20
     dd2:	55 1f       	adc	r21, r21
     dd4:	44 0f       	add	r20, r20
     dd6:	55 1f       	adc	r21, r21
     dd8:	e4 0f       	add	r30, r20
     dda:	f5 1f       	adc	r31, r21
     ddc:	ee 5e       	subi	r30, 0xEE	; 238
     dde:	f2 4f       	sbci	r31, 0xF2	; 242
     de0:	31 83       	std	Z+1, r19	; 0x01
     de2:	20 83       	st	Z, r18
     de4:	62 0f       	add	r22, r18
     de6:	73 1f       	adc	r23, r19
     de8:	6b 39       	cpi	r22, 0x9B	; 155
     dea:	71 05       	cpc	r23, r1
     dec:	54 f0       	brlt	.+20     	; 0xe02 <sensorTest+0xd0>
     dee:	fc 01       	movw	r30, r24
     df0:	ee 0f       	add	r30, r30
     df2:	ff 1f       	adc	r31, r31
     df4:	ee 5a       	subi	r30, 0xAE	; 174
     df6:	f3 4f       	sbci	r31, 0xF3	; 243
     df8:	81 e0       	ldi	r24, 0x01	; 1
     dfa:	90 e0       	ldi	r25, 0x00	; 0
     dfc:	91 83       	std	Z+1, r25	; 0x01
     dfe:	80 83       	st	Z, r24
     e00:	08 95       	ret
     e02:	fc 01       	movw	r30, r24
     e04:	ee 0f       	add	r30, r30
     e06:	ff 1f       	adc	r31, r31
     e08:	ee 5a       	subi	r30, 0xAE	; 174
     e0a:	f3 4f       	sbci	r31, 0xF3	; 243
     e0c:	11 82       	std	Z+1, r1	; 0x01
     e0e:	10 82       	st	Z, r1
     e10:	08 95       	ret

00000e12 <sendAck>:
     e12:	9f 93       	push	r25
     e14:	8f 93       	push	r24
     e16:	87 e3       	ldi	r24, 0x37	; 55
     e18:	96 e0       	ldi	r25, 0x06	; 6
     e1a:	9f 93       	push	r25
     e1c:	8f 93       	push	r24
     e1e:	0e 94 13 12 	call	0x2426	; 0x2426 <printf>
     e22:	0f 90       	pop	r0
     e24:	0f 90       	pop	r0
     e26:	0f 90       	pop	r0
     e28:	0f 90       	pop	r0
     e2a:	08 95       	ret

00000e2c <MotorInit>:
     e2c:	61 e0       	ldi	r22, 0x01	; 1
     e2e:	70 e0       	ldi	r23, 0x00	; 0
     e30:	80 e0       	ldi	r24, 0x00	; 0
     e32:	90 e0       	ldi	r25, 0x00	; 0
     e34:	5c db       	rcall	.-2376   	; 0x4ee <dxl_initialize>
     e36:	41 e0       	ldi	r20, 0x01	; 1
     e38:	50 e0       	ldi	r21, 0x00	; 0
     e3a:	6f e2       	ldi	r22, 0x2F	; 47
     e3c:	70 e0       	ldi	r23, 0x00	; 0
     e3e:	8f e1       	ldi	r24, 0x1F	; 31
     e40:	90 e0       	ldi	r25, 0x00	; 0
     e42:	d9 da       	rcall	.-2638   	; 0x3f6 <dxl_write_word>
     e44:	40 e0       	ldi	r20, 0x00	; 0
     e46:	50 e0       	ldi	r21, 0x00	; 0
     e48:	60 e2       	ldi	r22, 0x20	; 32
     e4a:	70 e0       	ldi	r23, 0x00	; 0
     e4c:	8e ef       	ldi	r24, 0xFE	; 254
     e4e:	90 e0       	ldi	r25, 0x00	; 0
     e50:	d2 da       	rcall	.-2652   	; 0x3f6 <dxl_write_word>
     e52:	40 e0       	ldi	r20, 0x00	; 0
     e54:	50 e0       	ldi	r21, 0x00	; 0
     e56:	68 e1       	ldi	r22, 0x18	; 24
     e58:	70 e0       	ldi	r23, 0x00	; 0
     e5a:	8e ef       	ldi	r24, 0xFE	; 254
     e5c:	90 e0       	ldi	r25, 0x00	; 0
     e5e:	03 db       	rcall	.-2554   	; 0x466 <dxl_write_byte>
     e60:	2f e3       	ldi	r18, 0x3F	; 63
     e62:	8d e0       	ldi	r24, 0x0D	; 13
     e64:	93 e0       	ldi	r25, 0x03	; 3
     e66:	21 50       	subi	r18, 0x01	; 1
     e68:	80 40       	sbci	r24, 0x00	; 0
     e6a:	90 40       	sbci	r25, 0x00	; 0
     e6c:	e1 f7       	brne	.-8      	; 0xe66 <MotorInit+0x3a>
     e6e:	00 c0       	rjmp	.+0      	; 0xe70 <MotorInit+0x44>
     e70:	00 00       	nop
     e72:	08 95       	ret

00000e74 <split>:
     e74:	0f 93       	push	r16
     e76:	1f 93       	push	r17
     e78:	cf 93       	push	r28
     e7a:	df 93       	push	r29
     e7c:	00 d0       	rcall	.+0      	; 0xe7e <split+0xa>
     e7e:	cd b7       	in	r28, 0x3d	; 61
     e80:	de b7       	in	r29, 0x3e	; 62
     e82:	20 e2       	ldi	r18, 0x20	; 32
     e84:	3c e2       	ldi	r19, 0x2C	; 44
     e86:	40 e0       	ldi	r20, 0x00	; 0
     e88:	29 83       	std	Y+1, r18	; 0x01
     e8a:	3a 83       	std	Y+2, r19	; 0x02
     e8c:	4b 83       	std	Y+3, r20	; 0x03
     e8e:	be 01       	movw	r22, r28
     e90:	6f 5f       	subi	r22, 0xFF	; 255
     e92:	7f 4f       	sbci	r23, 0xFF	; 255
     e94:	0e 94 59 11 	call	0x22b2	; 0x22b2 <strtok>
     e98:	00 97       	sbiw	r24, 0x00	; 0
     e9a:	89 f0       	breq	.+34     	; 0xebe <split+0x4a>
     e9c:	02 e7       	ldi	r16, 0x72	; 114
     e9e:	1c e0       	ldi	r17, 0x0C	; 12
     ea0:	0e 94 3c 11 	call	0x2278	; 0x2278 <atoi>
     ea4:	f8 01       	movw	r30, r16
     ea6:	81 93       	st	Z+, r24
     ea8:	91 93       	st	Z+, r25
     eaa:	8f 01       	movw	r16, r30
     eac:	be 01       	movw	r22, r28
     eae:	6f 5f       	subi	r22, 0xFF	; 255
     eb0:	7f 4f       	sbci	r23, 0xFF	; 255
     eb2:	80 e0       	ldi	r24, 0x00	; 0
     eb4:	90 e0       	ldi	r25, 0x00	; 0
     eb6:	0e 94 59 11 	call	0x22b2	; 0x22b2 <strtok>
     eba:	00 97       	sbiw	r24, 0x00	; 0
     ebc:	89 f7       	brne	.-30     	; 0xea0 <split+0x2c>
     ebe:	0f 90       	pop	r0
     ec0:	0f 90       	pop	r0
     ec2:	0f 90       	pop	r0
     ec4:	df 91       	pop	r29
     ec6:	cf 91       	pop	r28
     ec8:	1f 91       	pop	r17
     eca:	0f 91       	pop	r16
     ecc:	08 95       	ret

00000ece <isMoving>:
     ece:	80 91 64 0c 	lds	r24, 0x0C64
     ed2:	90 91 65 0c 	lds	r25, 0x0C65
     ed6:	88 51       	subi	r24, 0x18	; 24
     ed8:	9c 4f       	sbci	r25, 0xFC	; 252
     eda:	90 93 65 0c 	sts	0x0C65, r25
     ede:	80 93 64 0c 	sts	0x0C64, r24
     ee2:	20 91 62 0c 	lds	r18, 0x0C62
     ee6:	30 91 63 0c 	lds	r19, 0x0C63
     eea:	82 17       	cp	r24, r18
     eec:	93 07       	cpc	r25, r19
     eee:	3c f0       	brlt	.+14     	; 0xefe <isMoving+0x30>
     ef0:	10 92 65 0c 	sts	0x0C65, r1
     ef4:	10 92 64 0c 	sts	0x0C64, r1
     ef8:	80 e0       	ldi	r24, 0x00	; 0
     efa:	90 e0       	ldi	r25, 0x00	; 0
     efc:	08 95       	ret
     efe:	81 e0       	ldi	r24, 0x01	; 1
     f00:	90 e0       	ldi	r25, 0x00	; 0
     f02:	08 95       	ret

00000f04 <setAngle>:
     f04:	a0 91 74 0c 	lds	r26, 0x0C74
     f08:	b0 91 75 0c 	lds	r27, 0x0C75
     f0c:	a2 33       	cpi	r26, 0x32	; 50
     f0e:	b1 05       	cpc	r27, r1
     f10:	c4 f4       	brge	.+48     	; 0xf42 <setAngle+0x3e>
     f12:	e6 e7       	ldi	r30, 0x76	; 118
     f14:	fc e0       	ldi	r31, 0x0C	; 12
     f16:	aa 0f       	add	r26, r26
     f18:	bb 1f       	adc	r27, r27
     f1a:	cd 01       	movw	r24, r26
     f1c:	88 0f       	add	r24, r24
     f1e:	99 1f       	adc	r25, r25
     f20:	88 0f       	add	r24, r24
     f22:	99 1f       	adc	r25, r25
     f24:	88 0f       	add	r24, r24
     f26:	99 1f       	adc	r25, r25
     f28:	a8 0f       	add	r26, r24
     f2a:	b9 1f       	adc	r27, r25
     f2c:	ac 56       	subi	r26, 0x6C	; 108
     f2e:	bd 4f       	sbci	r27, 0xFD	; 253
     f30:	28 e8       	ldi	r18, 0x88	; 136
     f32:	3c e0       	ldi	r19, 0x0C	; 12
     f34:	81 91       	ld	r24, Z+
     f36:	91 91       	ld	r25, Z+
     f38:	8d 93       	st	X+, r24
     f3a:	9d 93       	st	X+, r25
     f3c:	e2 17       	cp	r30, r18
     f3e:	f3 07       	cpc	r31, r19
     f40:	c9 f7       	brne	.-14     	; 0xf34 <setAngle+0x30>
     f42:	08 95       	ret

00000f44 <getAngle>:
     f44:	cf 92       	push	r12
     f46:	df 92       	push	r13
     f48:	ef 92       	push	r14
     f4a:	ff 92       	push	r15
     f4c:	0f 93       	push	r16
     f4e:	1f 93       	push	r17
     f50:	cf 93       	push	r28
     f52:	df 93       	push	r29
     f54:	cd b7       	in	r28, 0x3d	; 61
     f56:	de b7       	in	r29, 0x3e	; 62
     f58:	60 97       	sbiw	r28, 0x10	; 16
     f5a:	0f b6       	in	r0, 0x3f	; 63
     f5c:	f8 94       	cli
     f5e:	de bf       	out	0x3e, r29	; 62
     f60:	0f be       	out	0x3f, r0	; 63
     f62:	cd bf       	out	0x3d, r28	; 61
     f64:	fe 01       	movw	r30, r28
     f66:	31 96       	adiw	r30, 0x01	; 1
     f68:	80 e1       	ldi	r24, 0x10	; 16
     f6a:	df 01       	movw	r26, r30
     f6c:	1d 92       	st	X+, r1
     f6e:	8a 95       	dec	r24
     f70:	e9 f7       	brne	.-6      	; 0xf6c <getAngle+0x28>
     f72:	08 e1       	ldi	r16, 0x18	; 24
     f74:	16 e0       	ldi	r17, 0x06	; 6
     f76:	7f 01       	movw	r14, r30
     f78:	0f 2e       	mov	r0, r31
     f7a:	f8 e2       	ldi	r31, 0x28	; 40
     f7c:	cf 2e       	mov	r12, r31
     f7e:	f6 e0       	ldi	r31, 0x06	; 6
     f80:	df 2e       	mov	r13, r31
     f82:	f0 2d       	mov	r31, r0
     f84:	64 e2       	ldi	r22, 0x24	; 36
     f86:	70 e0       	ldi	r23, 0x00	; 0
     f88:	f8 01       	movw	r30, r16
     f8a:	81 91       	ld	r24, Z+
     f8c:	91 91       	ld	r25, Z+
     f8e:	8f 01       	movw	r16, r30
     f90:	4c da       	rcall	.-2920   	; 0x42a <dxl_read_word>
     f92:	d7 01       	movw	r26, r14
     f94:	8d 93       	st	X+, r24
     f96:	9d 93       	st	X+, r25
     f98:	7d 01       	movw	r14, r26
     f9a:	0c 15       	cp	r16, r12
     f9c:	1d 05       	cpc	r17, r13
     f9e:	91 f7       	brne	.-28     	; 0xf84 <getAngle+0x40>
     fa0:	88 8d       	ldd	r24, Y+24	; 0x18
     fa2:	8f 93       	push	r24
     fa4:	8f 89       	ldd	r24, Y+23	; 0x17
     fa6:	8f 93       	push	r24
     fa8:	8e 89       	ldd	r24, Y+22	; 0x16
     faa:	8f 93       	push	r24
     fac:	8d 89       	ldd	r24, Y+21	; 0x15
     fae:	8f 93       	push	r24
     fb0:	8c 89       	ldd	r24, Y+20	; 0x14
     fb2:	8f 93       	push	r24
     fb4:	8b 89       	ldd	r24, Y+19	; 0x13
     fb6:	8f 93       	push	r24
     fb8:	8a 89       	ldd	r24, Y+18	; 0x12
     fba:	8f 93       	push	r24
     fbc:	89 89       	ldd	r24, Y+17	; 0x11
     fbe:	8f 93       	push	r24
     fc0:	88 89       	ldd	r24, Y+16	; 0x10
     fc2:	8f 93       	push	r24
     fc4:	8f 85       	ldd	r24, Y+15	; 0x0f
     fc6:	8f 93       	push	r24
     fc8:	8e 85       	ldd	r24, Y+14	; 0x0e
     fca:	8f 93       	push	r24
     fcc:	8d 85       	ldd	r24, Y+13	; 0x0d
     fce:	8f 93       	push	r24
     fd0:	8c 85       	ldd	r24, Y+12	; 0x0c
     fd2:	8f 93       	push	r24
     fd4:	8b 85       	ldd	r24, Y+11	; 0x0b
     fd6:	8f 93       	push	r24
     fd8:	8a 85       	ldd	r24, Y+10	; 0x0a
     fda:	8f 93       	push	r24
     fdc:	89 85       	ldd	r24, Y+9	; 0x09
     fde:	8f 93       	push	r24
     fe0:	88 85       	ldd	r24, Y+8	; 0x08
     fe2:	8f 93       	push	r24
     fe4:	8f 81       	ldd	r24, Y+7	; 0x07
     fe6:	8f 93       	push	r24
     fe8:	8e 81       	ldd	r24, Y+6	; 0x06
     fea:	8f 93       	push	r24
     fec:	8d 81       	ldd	r24, Y+5	; 0x05
     fee:	8f 93       	push	r24
     ff0:	8c 81       	ldd	r24, Y+4	; 0x04
     ff2:	8f 93       	push	r24
     ff4:	8b 81       	ldd	r24, Y+3	; 0x03
     ff6:	8f 93       	push	r24
     ff8:	8a 81       	ldd	r24, Y+2	; 0x02
     ffa:	8f 93       	push	r24
     ffc:	89 81       	ldd	r24, Y+1	; 0x01
     ffe:	8f 93       	push	r24
    1000:	1f 92       	push	r1
    1002:	82 e0       	ldi	r24, 0x02	; 2
    1004:	8f 93       	push	r24
    1006:	8c e3       	ldi	r24, 0x3C	; 60
    1008:	96 e0       	ldi	r25, 0x06	; 6
    100a:	9f 93       	push	r25
    100c:	8f 93       	push	r24
    100e:	0e 94 13 12 	call	0x2426	; 0x2426 <printf>
    1012:	0f b6       	in	r0, 0x3f	; 63
    1014:	f8 94       	cli
    1016:	de bf       	out	0x3e, r29	; 62
    1018:	0f be       	out	0x3f, r0	; 63
    101a:	cd bf       	out	0x3d, r28	; 61
    101c:	60 96       	adiw	r28, 0x10	; 16
    101e:	0f b6       	in	r0, 0x3f	; 63
    1020:	f8 94       	cli
    1022:	de bf       	out	0x3e, r29	; 62
    1024:	0f be       	out	0x3f, r0	; 63
    1026:	cd bf       	out	0x3d, r28	; 61
    1028:	df 91       	pop	r29
    102a:	cf 91       	pop	r28
    102c:	1f 91       	pop	r17
    102e:	0f 91       	pop	r16
    1030:	ff 90       	pop	r15
    1032:	ef 90       	pop	r14
    1034:	df 90       	pop	r13
    1036:	cf 90       	pop	r12
    1038:	08 95       	ret

0000103a <sendActAngle>:
    103a:	9c 01       	movw	r18, r24
    103c:	22 0f       	add	r18, r18
    103e:	33 1f       	adc	r19, r19
    1040:	f9 01       	movw	r30, r18
    1042:	ee 0f       	add	r30, r30
    1044:	ff 1f       	adc	r31, r31
    1046:	ee 0f       	add	r30, r30
    1048:	ff 1f       	adc	r31, r31
    104a:	ee 0f       	add	r30, r30
    104c:	ff 1f       	adc	r31, r31
    104e:	e2 0f       	add	r30, r18
    1050:	f3 1f       	adc	r31, r19
    1052:	ec 56       	subi	r30, 0x6C	; 108
    1054:	fd 4f       	sbci	r31, 0xFD	; 253
    1056:	21 8d       	ldd	r18, Z+25	; 0x19
    1058:	2f 93       	push	r18
    105a:	20 8d       	ldd	r18, Z+24	; 0x18
    105c:	2f 93       	push	r18
    105e:	27 89       	ldd	r18, Z+23	; 0x17
    1060:	2f 93       	push	r18
    1062:	26 89       	ldd	r18, Z+22	; 0x16
    1064:	2f 93       	push	r18
    1066:	25 89       	ldd	r18, Z+21	; 0x15
    1068:	2f 93       	push	r18
    106a:	24 89       	ldd	r18, Z+20	; 0x14
    106c:	2f 93       	push	r18
    106e:	01 96       	adiw	r24, 0x01	; 1
    1070:	dc 01       	movw	r26, r24
    1072:	aa 0f       	add	r26, r26
    1074:	bb 1f       	adc	r27, r27
    1076:	cd 01       	movw	r24, r26
    1078:	88 0f       	add	r24, r24
    107a:	99 1f       	adc	r25, r25
    107c:	88 0f       	add	r24, r24
    107e:	99 1f       	adc	r25, r25
    1080:	88 0f       	add	r24, r24
    1082:	99 1f       	adc	r25, r25
    1084:	a8 0f       	add	r26, r24
    1086:	b9 1f       	adc	r27, r25
    1088:	ac 56       	subi	r26, 0x6C	; 108
    108a:	bd 4f       	sbci	r27, 0xFD	; 253
    108c:	11 96       	adiw	r26, 0x01	; 1
    108e:	8c 91       	ld	r24, X
    1090:	11 97       	sbiw	r26, 0x01	; 1
    1092:	8f 93       	push	r24
    1094:	8c 91       	ld	r24, X
    1096:	8f 93       	push	r24
    1098:	81 89       	ldd	r24, Z+17	; 0x11
    109a:	8f 93       	push	r24
    109c:	80 89       	ldd	r24, Z+16	; 0x10
    109e:	8f 93       	push	r24
    10a0:	87 85       	ldd	r24, Z+15	; 0x0f
    10a2:	8f 93       	push	r24
    10a4:	86 85       	ldd	r24, Z+14	; 0x0e
    10a6:	8f 93       	push	r24
    10a8:	85 85       	ldd	r24, Z+13	; 0x0d
    10aa:	8f 93       	push	r24
    10ac:	84 85       	ldd	r24, Z+12	; 0x0c
    10ae:	8f 93       	push	r24
    10b0:	83 85       	ldd	r24, Z+11	; 0x0b
    10b2:	8f 93       	push	r24
    10b4:	82 85       	ldd	r24, Z+10	; 0x0a
    10b6:	8f 93       	push	r24
    10b8:	81 85       	ldd	r24, Z+9	; 0x09
    10ba:	8f 93       	push	r24
    10bc:	80 85       	ldd	r24, Z+8	; 0x08
    10be:	8f 93       	push	r24
    10c0:	87 81       	ldd	r24, Z+7	; 0x07
    10c2:	8f 93       	push	r24
    10c4:	86 81       	ldd	r24, Z+6	; 0x06
    10c6:	8f 93       	push	r24
    10c8:	85 81       	ldd	r24, Z+5	; 0x05
    10ca:	8f 93       	push	r24
    10cc:	84 81       	ldd	r24, Z+4	; 0x04
    10ce:	8f 93       	push	r24
    10d0:	83 81       	ldd	r24, Z+3	; 0x03
    10d2:	8f 93       	push	r24
    10d4:	82 81       	ldd	r24, Z+2	; 0x02
    10d6:	8f 93       	push	r24
    10d8:	81 81       	ldd	r24, Z+1	; 0x01
    10da:	8f 93       	push	r24
    10dc:	80 81       	ld	r24, Z
    10de:	8f 93       	push	r24
    10e0:	1f 92       	push	r1
    10e2:	83 e0       	ldi	r24, 0x03	; 3
    10e4:	8f 93       	push	r24
    10e6:	84 e6       	ldi	r24, 0x64	; 100
    10e8:	96 e0       	ldi	r25, 0x06	; 6
    10ea:	9f 93       	push	r25
    10ec:	8f 93       	push	r24
    10ee:	0e 94 13 12 	call	0x2426	; 0x2426 <printf>
    10f2:	8d b7       	in	r24, 0x3d	; 61
    10f4:	9e b7       	in	r25, 0x3e	; 62
    10f6:	4e 96       	adiw	r24, 0x1e	; 30
    10f8:	0f b6       	in	r0, 0x3f	; 63
    10fa:	f8 94       	cli
    10fc:	9e bf       	out	0x3e, r25	; 62
    10fe:	0f be       	out	0x3f, r0	; 63
    1100:	8d bf       	out	0x3d, r24	; 61
    1102:	08 95       	ret

00001104 <getLoad>:
    1104:	cf 92       	push	r12
    1106:	df 92       	push	r13
    1108:	ef 92       	push	r14
    110a:	ff 92       	push	r15
    110c:	0f 93       	push	r16
    110e:	1f 93       	push	r17
    1110:	cf 93       	push	r28
    1112:	df 93       	push	r29
    1114:	cd b7       	in	r28, 0x3d	; 61
    1116:	de b7       	in	r29, 0x3e	; 62
    1118:	60 97       	sbiw	r28, 0x10	; 16
    111a:	0f b6       	in	r0, 0x3f	; 63
    111c:	f8 94       	cli
    111e:	de bf       	out	0x3e, r29	; 62
    1120:	0f be       	out	0x3f, r0	; 63
    1122:	cd bf       	out	0x3d, r28	; 61
    1124:	fe 01       	movw	r30, r28
    1126:	31 96       	adiw	r30, 0x01	; 1
    1128:	80 e1       	ldi	r24, 0x10	; 16
    112a:	df 01       	movw	r26, r30
    112c:	1d 92       	st	X+, r1
    112e:	8a 95       	dec	r24
    1130:	e9 f7       	brne	.-6      	; 0x112c <getLoad+0x28>
    1132:	08 e1       	ldi	r16, 0x18	; 24
    1134:	16 e0       	ldi	r17, 0x06	; 6
    1136:	7f 01       	movw	r14, r30
    1138:	0f 2e       	mov	r0, r31
    113a:	f8 e2       	ldi	r31, 0x28	; 40
    113c:	cf 2e       	mov	r12, r31
    113e:	f6 e0       	ldi	r31, 0x06	; 6
    1140:	df 2e       	mov	r13, r31
    1142:	f0 2d       	mov	r31, r0
    1144:	68 e2       	ldi	r22, 0x28	; 40
    1146:	70 e0       	ldi	r23, 0x00	; 0
    1148:	f8 01       	movw	r30, r16
    114a:	81 91       	ld	r24, Z+
    114c:	91 91       	ld	r25, Z+
    114e:	8f 01       	movw	r16, r30
    1150:	6c d9       	rcall	.-3368   	; 0x42a <dxl_read_word>
    1152:	d7 01       	movw	r26, r14
    1154:	8d 93       	st	X+, r24
    1156:	9d 93       	st	X+, r25
    1158:	7d 01       	movw	r14, r26
    115a:	0c 15       	cp	r16, r12
    115c:	1d 05       	cpc	r17, r13
    115e:	91 f7       	brne	.-28     	; 0x1144 <getLoad+0x40>
    1160:	88 8d       	ldd	r24, Y+24	; 0x18
    1162:	8f 93       	push	r24
    1164:	8f 89       	ldd	r24, Y+23	; 0x17
    1166:	8f 93       	push	r24
    1168:	8e 89       	ldd	r24, Y+22	; 0x16
    116a:	8f 93       	push	r24
    116c:	8d 89       	ldd	r24, Y+21	; 0x15
    116e:	8f 93       	push	r24
    1170:	8c 89       	ldd	r24, Y+20	; 0x14
    1172:	8f 93       	push	r24
    1174:	8b 89       	ldd	r24, Y+19	; 0x13
    1176:	8f 93       	push	r24
    1178:	8a 89       	ldd	r24, Y+18	; 0x12
    117a:	8f 93       	push	r24
    117c:	89 89       	ldd	r24, Y+17	; 0x11
    117e:	8f 93       	push	r24
    1180:	88 89       	ldd	r24, Y+16	; 0x10
    1182:	8f 93       	push	r24
    1184:	8f 85       	ldd	r24, Y+15	; 0x0f
    1186:	8f 93       	push	r24
    1188:	8e 85       	ldd	r24, Y+14	; 0x0e
    118a:	8f 93       	push	r24
    118c:	8d 85       	ldd	r24, Y+13	; 0x0d
    118e:	8f 93       	push	r24
    1190:	8c 85       	ldd	r24, Y+12	; 0x0c
    1192:	8f 93       	push	r24
    1194:	8b 85       	ldd	r24, Y+11	; 0x0b
    1196:	8f 93       	push	r24
    1198:	8a 85       	ldd	r24, Y+10	; 0x0a
    119a:	8f 93       	push	r24
    119c:	89 85       	ldd	r24, Y+9	; 0x09
    119e:	8f 93       	push	r24
    11a0:	88 85       	ldd	r24, Y+8	; 0x08
    11a2:	8f 93       	push	r24
    11a4:	8f 81       	ldd	r24, Y+7	; 0x07
    11a6:	8f 93       	push	r24
    11a8:	8e 81       	ldd	r24, Y+6	; 0x06
    11aa:	8f 93       	push	r24
    11ac:	8d 81       	ldd	r24, Y+5	; 0x05
    11ae:	8f 93       	push	r24
    11b0:	8c 81       	ldd	r24, Y+4	; 0x04
    11b2:	8f 93       	push	r24
    11b4:	8b 81       	ldd	r24, Y+3	; 0x03
    11b6:	8f 93       	push	r24
    11b8:	8a 81       	ldd	r24, Y+2	; 0x02
    11ba:	8f 93       	push	r24
    11bc:	89 81       	ldd	r24, Y+1	; 0x01
    11be:	8f 93       	push	r24
    11c0:	1f 92       	push	r1
    11c2:	84 e0       	ldi	r24, 0x04	; 4
    11c4:	8f 93       	push	r24
    11c6:	8c e3       	ldi	r24, 0x3C	; 60
    11c8:	96 e0       	ldi	r25, 0x06	; 6
    11ca:	9f 93       	push	r25
    11cc:	8f 93       	push	r24
    11ce:	0e 94 13 12 	call	0x2426	; 0x2426 <printf>
    11d2:	0f b6       	in	r0, 0x3f	; 63
    11d4:	f8 94       	cli
    11d6:	de bf       	out	0x3e, r29	; 62
    11d8:	0f be       	out	0x3f, r0	; 63
    11da:	cd bf       	out	0x3d, r28	; 61
    11dc:	60 96       	adiw	r28, 0x10	; 16
    11de:	0f b6       	in	r0, 0x3f	; 63
    11e0:	f8 94       	cli
    11e2:	de bf       	out	0x3e, r29	; 62
    11e4:	0f be       	out	0x3f, r0	; 63
    11e6:	cd bf       	out	0x3d, r28	; 61
    11e8:	df 91       	pop	r29
    11ea:	cf 91       	pop	r28
    11ec:	1f 91       	pop	r17
    11ee:	0f 91       	pop	r16
    11f0:	ff 90       	pop	r15
    11f2:	ef 90       	pop	r14
    11f4:	df 90       	pop	r13
    11f6:	cf 90       	pop	r12
    11f8:	08 95       	ret

000011fa <getVoltage>:
    11fa:	cf 92       	push	r12
    11fc:	df 92       	push	r13
    11fe:	ef 92       	push	r14
    1200:	ff 92       	push	r15
    1202:	0f 93       	push	r16
    1204:	1f 93       	push	r17
    1206:	cf 93       	push	r28
    1208:	df 93       	push	r29
    120a:	cd b7       	in	r28, 0x3d	; 61
    120c:	de b7       	in	r29, 0x3e	; 62
    120e:	60 97       	sbiw	r28, 0x10	; 16
    1210:	0f b6       	in	r0, 0x3f	; 63
    1212:	f8 94       	cli
    1214:	de bf       	out	0x3e, r29	; 62
    1216:	0f be       	out	0x3f, r0	; 63
    1218:	cd bf       	out	0x3d, r28	; 61
    121a:	fe 01       	movw	r30, r28
    121c:	31 96       	adiw	r30, 0x01	; 1
    121e:	80 e1       	ldi	r24, 0x10	; 16
    1220:	df 01       	movw	r26, r30
    1222:	1d 92       	st	X+, r1
    1224:	8a 95       	dec	r24
    1226:	e9 f7       	brne	.-6      	; 0x1222 <getVoltage+0x28>
    1228:	08 e1       	ldi	r16, 0x18	; 24
    122a:	16 e0       	ldi	r17, 0x06	; 6
    122c:	7f 01       	movw	r14, r30
    122e:	0f 2e       	mov	r0, r31
    1230:	f8 e2       	ldi	r31, 0x28	; 40
    1232:	cf 2e       	mov	r12, r31
    1234:	f6 e0       	ldi	r31, 0x06	; 6
    1236:	df 2e       	mov	r13, r31
    1238:	f0 2d       	mov	r31, r0
    123a:	6a e2       	ldi	r22, 0x2A	; 42
    123c:	70 e0       	ldi	r23, 0x00	; 0
    123e:	f8 01       	movw	r30, r16
    1240:	81 91       	ld	r24, Z+
    1242:	91 91       	ld	r25, Z+
    1244:	8f 01       	movw	r16, r30
    1246:	f1 d8       	rcall	.-3614   	; 0x42a <dxl_read_word>
    1248:	0e 94 b5 00 	call	0x16a	; 0x16a <dxl_get_lowbyte>
    124c:	d7 01       	movw	r26, r14
    124e:	8d 93       	st	X+, r24
    1250:	9d 93       	st	X+, r25
    1252:	7d 01       	movw	r14, r26
    1254:	0c 15       	cp	r16, r12
    1256:	1d 05       	cpc	r17, r13
    1258:	81 f7       	brne	.-32     	; 0x123a <getVoltage+0x40>
    125a:	88 8d       	ldd	r24, Y+24	; 0x18
    125c:	8f 93       	push	r24
    125e:	8f 89       	ldd	r24, Y+23	; 0x17
    1260:	8f 93       	push	r24
    1262:	8e 89       	ldd	r24, Y+22	; 0x16
    1264:	8f 93       	push	r24
    1266:	8d 89       	ldd	r24, Y+21	; 0x15
    1268:	8f 93       	push	r24
    126a:	8c 89       	ldd	r24, Y+20	; 0x14
    126c:	8f 93       	push	r24
    126e:	8b 89       	ldd	r24, Y+19	; 0x13
    1270:	8f 93       	push	r24
    1272:	8a 89       	ldd	r24, Y+18	; 0x12
    1274:	8f 93       	push	r24
    1276:	89 89       	ldd	r24, Y+17	; 0x11
    1278:	8f 93       	push	r24
    127a:	88 89       	ldd	r24, Y+16	; 0x10
    127c:	8f 93       	push	r24
    127e:	8f 85       	ldd	r24, Y+15	; 0x0f
    1280:	8f 93       	push	r24
    1282:	8e 85       	ldd	r24, Y+14	; 0x0e
    1284:	8f 93       	push	r24
    1286:	8d 85       	ldd	r24, Y+13	; 0x0d
    1288:	8f 93       	push	r24
    128a:	8c 85       	ldd	r24, Y+12	; 0x0c
    128c:	8f 93       	push	r24
    128e:	8b 85       	ldd	r24, Y+11	; 0x0b
    1290:	8f 93       	push	r24
    1292:	8a 85       	ldd	r24, Y+10	; 0x0a
    1294:	8f 93       	push	r24
    1296:	89 85       	ldd	r24, Y+9	; 0x09
    1298:	8f 93       	push	r24
    129a:	88 85       	ldd	r24, Y+8	; 0x08
    129c:	8f 93       	push	r24
    129e:	8f 81       	ldd	r24, Y+7	; 0x07
    12a0:	8f 93       	push	r24
    12a2:	8e 81       	ldd	r24, Y+6	; 0x06
    12a4:	8f 93       	push	r24
    12a6:	8d 81       	ldd	r24, Y+5	; 0x05
    12a8:	8f 93       	push	r24
    12aa:	8c 81       	ldd	r24, Y+4	; 0x04
    12ac:	8f 93       	push	r24
    12ae:	8b 81       	ldd	r24, Y+3	; 0x03
    12b0:	8f 93       	push	r24
    12b2:	8a 81       	ldd	r24, Y+2	; 0x02
    12b4:	8f 93       	push	r24
    12b6:	89 81       	ldd	r24, Y+1	; 0x01
    12b8:	8f 93       	push	r24
    12ba:	1f 92       	push	r1
    12bc:	85 e0       	ldi	r24, 0x05	; 5
    12be:	8f 93       	push	r24
    12c0:	8c e3       	ldi	r24, 0x3C	; 60
    12c2:	96 e0       	ldi	r25, 0x06	; 6
    12c4:	9f 93       	push	r25
    12c6:	8f 93       	push	r24
    12c8:	0e 94 13 12 	call	0x2426	; 0x2426 <printf>
    12cc:	0f b6       	in	r0, 0x3f	; 63
    12ce:	f8 94       	cli
    12d0:	de bf       	out	0x3e, r29	; 62
    12d2:	0f be       	out	0x3f, r0	; 63
    12d4:	cd bf       	out	0x3d, r28	; 61
    12d6:	60 96       	adiw	r28, 0x10	; 16
    12d8:	0f b6       	in	r0, 0x3f	; 63
    12da:	f8 94       	cli
    12dc:	de bf       	out	0x3e, r29	; 62
    12de:	0f be       	out	0x3f, r0	; 63
    12e0:	cd bf       	out	0x3d, r28	; 61
    12e2:	df 91       	pop	r29
    12e4:	cf 91       	pop	r28
    12e6:	1f 91       	pop	r17
    12e8:	0f 91       	pop	r16
    12ea:	ff 90       	pop	r15
    12ec:	ef 90       	pop	r14
    12ee:	df 90       	pop	r13
    12f0:	cf 90       	pop	r12
    12f2:	08 95       	ret

000012f4 <startMotion>:
    12f4:	90 93 61 0c 	sts	0x0C61, r25
    12f8:	80 93 60 0c 	sts	0x0C60, r24
    12fc:	70 93 5f 0c 	sts	0x0C5F, r23
    1300:	60 93 5e 0c 	sts	0x0C5E, r22
    1304:	20 91 66 0c 	lds	r18, 0x0C66
    1308:	30 91 67 0c 	lds	r19, 0x0C67
    130c:	23 2b       	or	r18, r19
    130e:	61 f4       	brne	.+24     	; 0x1328 <startMotion+0x34>
    1310:	90 93 69 0c 	sts	0x0C69, r25
    1314:	80 93 68 0c 	sts	0x0C68, r24
    1318:	70 93 67 0c 	sts	0x0C67, r23
    131c:	60 93 66 0c 	sts	0x0C66, r22
    1320:	10 92 5f 0c 	sts	0x0C5F, r1
    1324:	10 92 5e 0c 	sts	0x0C5E, r1
    1328:	08 95       	ret

0000132a <setModeAction>:
    132a:	80 91 66 0c 	lds	r24, 0x0C66
    132e:	90 91 67 0c 	lds	r25, 0x0C67
    1332:	18 16       	cp	r1, r24
    1334:	19 06       	cpc	r1, r25
    1336:	0c f4       	brge	.+2      	; 0x133a <setModeAction+0x10>
    1338:	50 c0       	rjmp	.+160    	; 0x13da <setModeAction+0xb0>
    133a:	80 91 70 0c 	lds	r24, 0x0C70
    133e:	90 91 71 0c 	lds	r25, 0x0C71
    1342:	01 97       	sbiw	r24, 0x01	; 1
    1344:	09 f0       	breq	.+2      	; 0x1348 <setModeAction+0x1e>
    1346:	49 c0       	rjmp	.+146    	; 0x13da <setModeAction+0xb0>
    1348:	80 91 58 0c 	lds	r24, 0x0C58
    134c:	90 91 59 0c 	lds	r25, 0x0C59
    1350:	89 2b       	or	r24, r25
    1352:	d1 f4       	brne	.+52     	; 0x1388 <setModeAction+0x5e>
    1354:	e0 91 6a 0c 	lds	r30, 0x0C6A
    1358:	f0 91 6b 0c 	lds	r31, 0x0C6B
    135c:	ee 0f       	add	r30, r30
    135e:	ff 1f       	adc	r31, r31
    1360:	ee 0f       	add	r30, r30
    1362:	ff 1f       	adc	r31, r31
    1364:	e2 5f       	subi	r30, 0xF2	; 242
    1366:	fd 4f       	sbci	r31, 0xFD	; 253
    1368:	80 81       	ld	r24, Z
    136a:	91 81       	ldd	r25, Z+1	; 0x01
    136c:	02 97       	sbiw	r24, 0x02	; 2
    136e:	61 f4       	brne	.+24     	; 0x1388 <setModeAction+0x5e>
    1370:	61 e0       	ldi	r22, 0x01	; 1
    1372:	70 e0       	ldi	r23, 0x00	; 0
    1374:	81 e0       	ldi	r24, 0x01	; 1
    1376:	90 e0       	ldi	r25, 0x00	; 0
    1378:	bd df       	rcall	.-134    	; 0x12f4 <startMotion>
    137a:	81 e0       	ldi	r24, 0x01	; 1
    137c:	90 e0       	ldi	r25, 0x00	; 0
    137e:	90 93 59 0c 	sts	0x0C59, r25
    1382:	80 93 58 0c 	sts	0x0C58, r24
    1386:	08 95       	ret
    1388:	10 92 59 0c 	sts	0x0C59, r1
    138c:	10 92 58 0c 	sts	0x0C58, r1
    1390:	e0 91 6a 0c 	lds	r30, 0x0C6A
    1394:	f0 91 6b 0c 	lds	r31, 0x0C6B
    1398:	ee 0f       	add	r30, r30
    139a:	ff 1f       	adc	r31, r31
    139c:	ee 0f       	add	r30, r30
    139e:	ff 1f       	adc	r31, r31
    13a0:	e2 5f       	subi	r30, 0xF2	; 242
    13a2:	fd 4f       	sbci	r31, 0xFD	; 253
    13a4:	62 81       	ldd	r22, Z+2	; 0x02
    13a6:	73 81       	ldd	r23, Z+3	; 0x03
    13a8:	80 81       	ld	r24, Z
    13aa:	91 81       	ldd	r25, Z+1	; 0x01
    13ac:	a3 df       	rcall	.-186    	; 0x12f4 <startMotion>
    13ae:	80 91 6a 0c 	lds	r24, 0x0C6A
    13b2:	90 91 6b 0c 	lds	r25, 0x0C6B
    13b6:	01 96       	adiw	r24, 0x01	; 1
    13b8:	90 93 6b 0c 	sts	0x0C6B, r25
    13bc:	80 93 6a 0c 	sts	0x0C6A, r24
    13c0:	20 91 10 02 	lds	r18, 0x0210
    13c4:	30 91 11 02 	lds	r19, 0x0211
    13c8:	28 17       	cp	r18, r24
    13ca:	39 07       	cpc	r19, r25
    13cc:	34 f4       	brge	.+12     	; 0x13da <setModeAction+0xb0>
    13ce:	81 e0       	ldi	r24, 0x01	; 1
    13d0:	90 e0       	ldi	r25, 0x00	; 0
    13d2:	90 93 6b 0c 	sts	0x0C6B, r25
    13d6:	80 93 6a 0c 	sts	0x0C6A, r24
    13da:	08 95       	ret

000013dc <forceMotion>:
    13dc:	90 93 69 0c 	sts	0x0C69, r25
    13e0:	80 93 68 0c 	sts	0x0C68, r24
    13e4:	70 93 67 0c 	sts	0x0C67, r23
    13e8:	60 93 66 0c 	sts	0x0C66, r22
    13ec:	10 92 5f 0c 	sts	0x0C5F, r1
    13f0:	10 92 5e 0c 	sts	0x0C5E, r1
    13f4:	81 e0       	ldi	r24, 0x01	; 1
    13f6:	90 e0       	ldi	r25, 0x00	; 0
    13f8:	90 93 0d 02 	sts	0x020D, r25
    13fc:	80 93 0c 02 	sts	0x020C, r24
    1400:	10 92 65 0c 	sts	0x0C65, r1
    1404:	10 92 64 0c 	sts	0x0C64, r1
    1408:	08 95       	ret

0000140a <stopMotion>:
    140a:	81 e0       	ldi	r24, 0x01	; 1
    140c:	90 e0       	ldi	r25, 0x00	; 0
    140e:	90 93 0d 02 	sts	0x020D, r25
    1412:	80 93 0c 02 	sts	0x020C, r24
    1416:	10 92 67 0c 	sts	0x0C67, r1
    141a:	10 92 66 0c 	sts	0x0C66, r1
    141e:	10 92 65 0c 	sts	0x0C65, r1
    1422:	10 92 64 0c 	sts	0x0C64, r1
    1426:	8f ef       	ldi	r24, 0xFF	; 255
    1428:	9f ef       	ldi	r25, 0xFF	; 255
    142a:	90 93 0b 02 	sts	0x020B, r25
    142e:	80 93 0a 02 	sts	0x020A, r24
    1432:	08 95       	ret

00001434 <PrintErrorCode>:
	
}

void PrintErrorCode()
{
	if(dxl_get_rxpacket_error(ERRBIT_VOLTAGE) == 1)
    1434:	81 e0       	ldi	r24, 0x01	; 1
    1436:	90 e0       	ldi	r25, 0x00	; 0
    1438:	0e 94 9b 00 	call	0x136	; 0x136 <dxl_get_rxpacket_error>
    143c:	01 97       	sbiw	r24, 0x01	; 1
    143e:	21 f4       	brne	.+8      	; 0x1448 <PrintErrorCode+0x14>
	printf("Input voltage error!\n");
    1440:	84 e9       	ldi	r24, 0x94	; 148
    1442:	96 e0       	ldi	r25, 0x06	; 6
    1444:	0e 94 24 12 	call	0x2448	; 0x2448 <puts>

	if(dxl_get_rxpacket_error(ERRBIT_ANGLE) == 1)
    1448:	82 e0       	ldi	r24, 0x02	; 2
    144a:	90 e0       	ldi	r25, 0x00	; 0
    144c:	0e 94 9b 00 	call	0x136	; 0x136 <dxl_get_rxpacket_error>
    1450:	01 97       	sbiw	r24, 0x01	; 1
    1452:	19 f4       	brne	.+6      	; 0x145a <PrintErrorCode+0x26>
	printf("Angle limit error!\n");
    1454:	89 ea       	ldi	r24, 0xA9	; 169
    1456:	96 e0       	ldi	r25, 0x06	; 6
    1458:	f7 d7       	rcall	.+4078   	; 0x2448 <puts>

	if(dxl_get_rxpacket_error(ERRBIT_OVERHEAT) == 1)
    145a:	84 e0       	ldi	r24, 0x04	; 4
    145c:	90 e0       	ldi	r25, 0x00	; 0
    145e:	0e 94 9b 00 	call	0x136	; 0x136 <dxl_get_rxpacket_error>
    1462:	01 97       	sbiw	r24, 0x01	; 1
    1464:	19 f4       	brne	.+6      	; 0x146c <PrintErrorCode+0x38>
	printf("Overheat error!\n");
    1466:	8c eb       	ldi	r24, 0xBC	; 188
    1468:	96 e0       	ldi	r25, 0x06	; 6
    146a:	ee d7       	rcall	.+4060   	; 0x2448 <puts>

	if(dxl_get_rxpacket_error(ERRBIT_RANGE) == 1)
    146c:	88 e0       	ldi	r24, 0x08	; 8
    146e:	90 e0       	ldi	r25, 0x00	; 0
    1470:	0e 94 9b 00 	call	0x136	; 0x136 <dxl_get_rxpacket_error>
    1474:	01 97       	sbiw	r24, 0x01	; 1
    1476:	19 f4       	brne	.+6      	; 0x147e <PrintErrorCode+0x4a>
	printf("Out of range error!\n");
    1478:	8c ec       	ldi	r24, 0xCC	; 204
    147a:	96 e0       	ldi	r25, 0x06	; 6
    147c:	e5 d7       	rcall	.+4042   	; 0x2448 <puts>

	if(dxl_get_rxpacket_error(ERRBIT_CHECKSUM) == 1)
    147e:	80 e1       	ldi	r24, 0x10	; 16
    1480:	90 e0       	ldi	r25, 0x00	; 0
    1482:	0e 94 9b 00 	call	0x136	; 0x136 <dxl_get_rxpacket_error>
    1486:	01 97       	sbiw	r24, 0x01	; 1
    1488:	19 f4       	brne	.+6      	; 0x1490 <PrintErrorCode+0x5c>
	printf("Checksum error!\n");
    148a:	80 ee       	ldi	r24, 0xE0	; 224
    148c:	96 e0       	ldi	r25, 0x06	; 6
    148e:	dc d7       	rcall	.+4024   	; 0x2448 <puts>

	if(dxl_get_rxpacket_error(ERRBIT_OVERLOAD) == 1)
    1490:	80 e2       	ldi	r24, 0x20	; 32
    1492:	90 e0       	ldi	r25, 0x00	; 0
    1494:	0e 94 9b 00 	call	0x136	; 0x136 <dxl_get_rxpacket_error>
    1498:	01 97       	sbiw	r24, 0x01	; 1
    149a:	19 f4       	brne	.+6      	; 0x14a2 <PrintErrorCode+0x6e>
	printf("Overload error!\n");
    149c:	80 ef       	ldi	r24, 0xF0	; 240
    149e:	96 e0       	ldi	r25, 0x06	; 6
    14a0:	d3 d7       	rcall	.+4006   	; 0x2448 <puts>

	if(dxl_get_rxpacket_error(ERRBIT_INSTRUCTION) == 1)
    14a2:	80 e4       	ldi	r24, 0x40	; 64
    14a4:	90 e0       	ldi	r25, 0x00	; 0
    14a6:	0e 94 9b 00 	call	0x136	; 0x136 <dxl_get_rxpacket_error>
    14aa:	01 97       	sbiw	r24, 0x01	; 1
    14ac:	19 f4       	brne	.+6      	; 0x14b4 <PrintErrorCode+0x80>
	printf("Instruction code error!\n");
    14ae:	80 e0       	ldi	r24, 0x00	; 0
    14b0:	97 e0       	ldi	r25, 0x07	; 7
    14b2:	ca c7       	rjmp	.+3988   	; 0x2448 <puts>
    14b4:	08 95       	ret

000014b6 <PrintCommStatus>:
}

// Print communication result
void PrintCommStatus(int CommStatus)
{
	switch(CommStatus)
    14b6:	84 30       	cpi	r24, 0x04	; 4
    14b8:	91 05       	cpc	r25, r1
    14ba:	91 f0       	breq	.+36     	; 0x14e0 <PrintCommStatus+0x2a>
    14bc:	34 f4       	brge	.+12     	; 0x14ca <PrintCommStatus+0x14>
    14be:	82 30       	cpi	r24, 0x02	; 2
    14c0:	91 05       	cpc	r25, r1
    14c2:	51 f0       	breq	.+20     	; 0x14d8 <PrintCommStatus+0x22>
    14c4:	03 97       	sbiw	r24, 0x03	; 3
    14c6:	81 f0       	breq	.+32     	; 0x14e8 <PrintCommStatus+0x32>
    14c8:	1f c0       	rjmp	.+62     	; 0x1508 <PrintCommStatus+0x52>
    14ca:	86 30       	cpi	r24, 0x06	; 6
    14cc:	91 05       	cpc	r25, r1
    14ce:	a1 f0       	breq	.+40     	; 0x14f8 <PrintCommStatus+0x42>
    14d0:	7c f0       	brlt	.+30     	; 0x14f0 <PrintCommStatus+0x3a>
    14d2:	07 97       	sbiw	r24, 0x07	; 7
    14d4:	a9 f0       	breq	.+42     	; 0x1500 <PrintCommStatus+0x4a>
    14d6:	18 c0       	rjmp	.+48     	; 0x1508 <PrintCommStatus+0x52>
	{
		case COMM_TXFAIL:
		printf("COMM_TXFAIL: Failed transmit instruction packet!\n");
    14d8:	88 e1       	ldi	r24, 0x18	; 24
    14da:	97 e0       	ldi	r25, 0x07	; 7
    14dc:	b5 c7       	rjmp	.+3946   	; 0x2448 <puts>
		break;
    14de:	08 95       	ret

		case COMM_TXERROR:
		printf("COMM_TXERROR: Incorrect instruction packet!\n");
    14e0:	89 e4       	ldi	r24, 0x49	; 73
    14e2:	97 e0       	ldi	r25, 0x07	; 7
    14e4:	b1 c7       	rjmp	.+3938   	; 0x2448 <puts>
		break;
    14e6:	08 95       	ret

		case COMM_RXFAIL:
		printf("COMM_RXFAIL: Failed get status packet from device!\n");
    14e8:	85 e7       	ldi	r24, 0x75	; 117
    14ea:	97 e0       	ldi	r25, 0x07	; 7
    14ec:	ad c7       	rjmp	.+3930   	; 0x2448 <puts>
		break;
    14ee:	08 95       	ret

		case COMM_RXWAITING:
		printf("COMM_RXWAITING: Now recieving status packet!\n");
    14f0:	88 ea       	ldi	r24, 0xA8	; 168
    14f2:	97 e0       	ldi	r25, 0x07	; 7
    14f4:	a9 c7       	rjmp	.+3922   	; 0x2448 <puts>
		break;
    14f6:	08 95       	ret

		case COMM_RXTIMEOUT:
		printf("COMM_RXTIMEOUT: There is no status packet!\n");
    14f8:	85 ed       	ldi	r24, 0xD5	; 213
    14fa:	97 e0       	ldi	r25, 0x07	; 7
    14fc:	a5 c7       	rjmp	.+3914   	; 0x2448 <puts>
		break;
    14fe:	08 95       	ret

		case COMM_RXCORRUPT:
		printf("COMM_RXCORRUPT: Incorrect status packet!\n");
    1500:	80 e0       	ldi	r24, 0x00	; 0
    1502:	98 e0       	ldi	r25, 0x08	; 8
    1504:	a1 c7       	rjmp	.+3906   	; 0x2448 <puts>
		break;
    1506:	08 95       	ret

		default:
		printf("This is unknown error code!\n");
    1508:	89 e2       	ldi	r24, 0x29	; 41
    150a:	98 e0       	ldi	r25, 0x08	; 8
    150c:	9d c7       	rjmp	.+3898   	; 0x2448 <puts>
    150e:	08 95       	ret

00001510 <MotorControl>:
	
	printf( "%d:%d,%d,%d,%d,%d,%d,%d,%d,%d,%d,%d,%d\n",
	EVT_GET_VOLTAGE, tmp[0],tmp[1],tmp[2],tmp[3],tmp[4],tmp[5],tmp[6],tmp[7],tmp[8],tmp[9],tmp[10],tmp[11] );
}

void MotorControl( int id, int power ){
    1510:	0f 93       	push	r16
    1512:	1f 93       	push	r17
    1514:	cf 93       	push	r28
    1516:	df 93       	push	r29
    1518:	8c 01       	movw	r16, r24
    151a:	eb 01       	movw	r28, r22
	int CommStatus;
//	printf( "%d %d\n", id, power );
//	dxl_write_word( id, P_GOAL_SPEED_L, power );
	if(1){
		dxl_set_txpacket_id(BROADCAST_ID);
    151c:	8e ef       	ldi	r24, 0xFE	; 254
    151e:	90 e0       	ldi	r25, 0x00	; 0
    1520:	0e 94 8d 00 	call	0x11a	; 0x11a <dxl_set_txpacket_id>
		dxl_set_txpacket_instruction(INST_SYNC_WRITE);
    1524:	83 e8       	ldi	r24, 0x83	; 131
    1526:	90 e0       	ldi	r25, 0x00	; 0
    1528:	0e 94 90 00 	call	0x120	; 0x120 <dxl_set_txpacket_instruction>
		dxl_set_txpacket_parameter(0, P_GOAL_SPEED_L);
    152c:	60 e2       	ldi	r22, 0x20	; 32
    152e:	70 e0       	ldi	r23, 0x00	; 0
    1530:	80 e0       	ldi	r24, 0x00	; 0
    1532:	90 e0       	ldi	r25, 0x00	; 0
    1534:	0e 94 93 00 	call	0x126	; 0x126 <dxl_set_txpacket_parameter>
		dxl_set_txpacket_parameter(1, 2);
    1538:	62 e0       	ldi	r22, 0x02	; 2
    153a:	70 e0       	ldi	r23, 0x00	; 0
    153c:	81 e0       	ldi	r24, 0x01	; 1
    153e:	90 e0       	ldi	r25, 0x00	; 0
    1540:	0e 94 93 00 	call	0x126	; 0x126 <dxl_set_txpacket_parameter>
		dxl_set_txpacket_parameter(2, id);
    1544:	b8 01       	movw	r22, r16
    1546:	82 e0       	ldi	r24, 0x02	; 2
    1548:	90 e0       	ldi	r25, 0x00	; 0
    154a:	0e 94 93 00 	call	0x126	; 0x126 <dxl_set_txpacket_parameter>
		dxl_set_txpacket_parameter(3, dxl_get_lowbyte(power));
    154e:	ce 01       	movw	r24, r28
    1550:	0e 94 b5 00 	call	0x16a	; 0x16a <dxl_get_lowbyte>
    1554:	bc 01       	movw	r22, r24
    1556:	83 e0       	ldi	r24, 0x03	; 3
    1558:	90 e0       	ldi	r25, 0x00	; 0
    155a:	0e 94 93 00 	call	0x126	; 0x126 <dxl_set_txpacket_parameter>
		dxl_set_txpacket_parameter(4, dxl_get_highbyte(power));
    155e:	ce 01       	movw	r24, r28
    1560:	0e 94 b9 00 	call	0x172	; 0x172 <dxl_get_highbyte>
    1564:	bc 01       	movw	r22, r24
    1566:	84 e0       	ldi	r24, 0x04	; 4
    1568:	90 e0       	ldi	r25, 0x00	; 0
    156a:	0e 94 93 00 	call	0x126	; 0x126 <dxl_set_txpacket_parameter>
		dxl_set_txpacket_length(4+3*1);
    156e:	87 e0       	ldi	r24, 0x07	; 7
    1570:	90 e0       	ldi	r25, 0x00	; 0
    1572:	0e 94 98 00 	call	0x130	; 0x130 <dxl_set_txpacket_length>
		dxl_txrx_packet();
    1576:	0e 94 ec 01 	call	0x3d8	; 0x3d8 <dxl_txrx_packet>
		CommStatus = dxl_get_result();
    157a:	0e 94 88 00 	call	0x110	; 0x110 <dxl_get_result>
		if( CommStatus == COMM_RXSUCCESS )
    157e:	81 30       	cpi	r24, 0x01	; 1
    1580:	91 05       	cpc	r25, r1
    1582:	11 f4       	brne	.+4      	; 0x1588 <MotorControl+0x78>
			PrintErrorCode();
    1584:	57 df       	rcall	.-338    	; 0x1434 <PrintErrorCode>
    1586:	01 c0       	rjmp	.+2      	; 0x158a <MotorControl+0x7a>
		else
			PrintCommStatus(CommStatus);
    1588:	96 df       	rcall	.-212    	; 0x14b6 <PrintCommStatus>
	}
}
    158a:	df 91       	pop	r29
    158c:	cf 91       	pop	r28
    158e:	1f 91       	pop	r17
    1590:	0f 91       	pop	r16
    1592:	08 95       	ret

00001594 <ServoControl>:
//	printf( "%d:%d,%d,%d,%d,%d,%d,%d,%d,%d,%d,%d,%d: %d:\n",
//	EVT_ACTION, speed[0],speed[1],speed[2],speed[3],speed[4],
//	speed[5],speed[6],speed[7],speed[8],speed[9],speed[10],speed[11], movingTime );
}

void ServoControl( int act ){
    1594:	2f 92       	push	r2
    1596:	3f 92       	push	r3
    1598:	4f 92       	push	r4
    159a:	5f 92       	push	r5
    159c:	6f 92       	push	r6
    159e:	7f 92       	push	r7
    15a0:	8f 92       	push	r8
    15a2:	9f 92       	push	r9
    15a4:	af 92       	push	r10
    15a6:	bf 92       	push	r11
    15a8:	cf 92       	push	r12
    15aa:	df 92       	push	r13
    15ac:	ef 92       	push	r14
    15ae:	ff 92       	push	r15
    15b0:	0f 93       	push	r16
    15b2:	1f 93       	push	r17
    15b4:	cf 93       	push	r28
    15b6:	df 93       	push	r29
    15b8:	cd b7       	in	r28, 0x3d	; 61
    15ba:	de b7       	in	r29, 0x3e	; 62
    15bc:	aa 97       	sbiw	r28, 0x2a	; 42
    15be:	0f b6       	in	r0, 0x3f	; 63
    15c0:	f8 94       	cli
    15c2:	de bf       	out	0x3e, r29	; 62
    15c4:	0f be       	out	0x3f, r0	; 63
    15c6:	cd bf       	out	0x3d, r28	; 61
    15c8:	9e a3       	std	Y+38, r25	; 0x26
    15ca:	8d a3       	std	Y+37, r24	; 0x25
	int i;
	int CommStatus = 0;
	if( act >= ACT_MAX ){
    15cc:	c2 97       	sbiw	r24, 0x32	; 50
    15ce:	0c f0       	brlt	.+2      	; 0x15d2 <ServoControl+0x3e>
    15d0:	79 c1       	rjmp	.+754    	; 0x18c4 <ServoControl+0x330>
	}
	
	//GetAngle
	int angle = 0;
	int diffMax = 0;
	int angleDiff[SERVO_MAX] = {0};
    15d2:	fe 01       	movw	r30, r28
    15d4:	31 96       	adiw	r30, 0x01	; 1
    15d6:	80 e1       	ldi	r24, 0x10	; 16
    15d8:	df 01       	movw	r26, r30
    15da:	1d 92       	st	X+, r1
    15dc:	8a 95       	dec	r24
    15de:	e9 f7       	brne	.-6      	; 0x15da <ServoControl+0x46>
    15e0:	8d a1       	ldd	r24, Y+37	; 0x25
    15e2:	9e a1       	ldd	r25, Y+38	; 0x26
    15e4:	88 0f       	add	r24, r24
    15e6:	99 1f       	adc	r25, r25
    15e8:	9c 01       	movw	r18, r24
    15ea:	22 0f       	add	r18, r18
    15ec:	33 1f       	adc	r19, r19
    15ee:	22 0f       	add	r18, r18
    15f0:	33 1f       	adc	r19, r19
    15f2:	22 0f       	add	r18, r18
    15f4:	33 1f       	adc	r19, r19
    15f6:	82 0f       	add	r24, r18
    15f8:	93 1f       	adc	r25, r19
    15fa:	9c 01       	movw	r18, r24
    15fc:	2c 56       	subi	r18, 0x6C	; 108
    15fe:	3d 4f       	sbci	r19, 0xFD	; 253
    1600:	38 a7       	std	Y+40, r19	; 0x28
    1602:	2f a3       	std	Y+39, r18	; 0x27
    1604:	6e 2e       	mov	r6, r30
    1606:	7f 2e       	mov	r7, r31
    1608:	0f 2e       	mov	r0, r31
    160a:	f8 e2       	ldi	r31, 0x28	; 40
    160c:	8f 2e       	mov	r8, r31
    160e:	f6 e0       	ldi	r31, 0x06	; 6
    1610:	9f 2e       	mov	r9, r31
    1612:	f0 2d       	mov	r31, r0
    1614:	7f 01       	movw	r14, r30
    1616:	69 01       	movw	r12, r18
    1618:	08 e1       	ldi	r16, 0x18	; 24
    161a:	16 e0       	ldi	r17, 0x06	; 6
		return;
	}
	
	//GetAngle
	int angle = 0;
	int diffMax = 0;
    161c:	a1 2c       	mov	r10, r1
    161e:	b1 2c       	mov	r11, r1
	int angleDiff[SERVO_MAX] = {0};
	for(int i=0; i<SERVO_MAX; i++ ){
//		if( motionFirst < 0 ){
			angle = dxl_read_word( servoId[i], P_PRESENT_POSITION_L );
    1620:	64 e2       	ldi	r22, 0x24	; 36
    1622:	70 e0       	ldi	r23, 0x00	; 0
    1624:	d8 01       	movw	r26, r16
    1626:	8d 91       	ld	r24, X+
    1628:	9d 91       	ld	r25, X+
    162a:	8d 01       	movw	r16, r26
    162c:	0e 94 15 02 	call	0x42a	; 0x42a <dxl_read_word>
//		}else{
//			angle = angleList[motionFirst][i];
//		}
		angleDiff[i] = angleList[act][i] - angle;
    1630:	f6 01       	movw	r30, r12
    1632:	21 91       	ld	r18, Z+
    1634:	31 91       	ld	r19, Z+
    1636:	6f 01       	movw	r12, r30
    1638:	a9 01       	movw	r20, r18
    163a:	48 1b       	sub	r20, r24
    163c:	59 0b       	sbc	r21, r25
    163e:	ca 01       	movw	r24, r20
		if( angleDiff[i] < 0 ){
    1640:	99 23       	and	r25, r25
    1642:	24 f0       	brlt	.+8      	; 0x164c <ServoControl+0xb8>
//		if( motionFirst < 0 ){
			angle = dxl_read_word( servoId[i], P_PRESENT_POSITION_L );
//		}else{
//			angle = angleList[motionFirst][i];
//		}
		angleDiff[i] = angleList[act][i] - angle;
    1644:	d7 01       	movw	r26, r14
    1646:	4d 93       	st	X+, r20
    1648:	5c 93       	st	X, r21
    164a:	06 c0       	rjmp	.+12     	; 0x1658 <ServoControl+0xc4>
		if( angleDiff[i] < 0 ){
			angleDiff[i] = angleDiff[i] * -1;
    164c:	91 95       	neg	r25
    164e:	81 95       	neg	r24
    1650:	91 09       	sbc	r25, r1
    1652:	f7 01       	movw	r30, r14
    1654:	91 83       	std	Z+1, r25	; 0x01
    1656:	80 83       	st	Z, r24
		}
		if( diffMax < angleDiff[i] ){
    1658:	d7 01       	movw	r26, r14
    165a:	8d 91       	ld	r24, X+
    165c:	9d 91       	ld	r25, X+
    165e:	7d 01       	movw	r14, r26
    1660:	a8 16       	cp	r10, r24
    1662:	b9 06       	cpc	r11, r25
    1664:	0c f4       	brge	.+2      	; 0x1668 <ServoControl+0xd4>
    1666:	5c 01       	movw	r10, r24
	
	//GetAngle
	int angle = 0;
	int diffMax = 0;
	int angleDiff[SERVO_MAX] = {0};
	for(int i=0; i<SERVO_MAX; i++ ){
    1668:	08 15       	cp	r16, r8
    166a:	19 05       	cpc	r17, r9
    166c:	c9 f6       	brne	.-78     	; 0x1620 <ServoControl+0x8c>
			diffMax = angleDiff[i];
		}
	}
//	motionFirst = act;
	
	int speed[SERVO_MAX] = {100};
    166e:	8e 01       	movw	r16, r28
    1670:	0f 5e       	subi	r16, 0xEF	; 239
    1672:	1f 4f       	sbci	r17, 0xFF	; 255
    1674:	80 e1       	ldi	r24, 0x10	; 16
    1676:	f8 01       	movw	r30, r16
    1678:	11 92       	st	Z+, r1
    167a:	8a 95       	dec	r24
    167c:	e9 f7       	brne	.-6      	; 0x1678 <ServoControl+0xe4>
    167e:	84 e6       	ldi	r24, 0x64	; 100
    1680:	90 e0       	ldi	r25, 0x00	; 0
    1682:	9a 8b       	std	Y+18, r25	; 0x12
    1684:	89 8b       	std	Y+17, r24	; 0x11
	for(int i=0; i<SERVO_MAX; i++ ){
		speed[i] = (int)((float)(angleList[act][SERVO_MAX]) * ((float)angleDiff[i] / diffMax));
    1686:	8d a1       	ldd	r24, Y+37	; 0x25
    1688:	9e a1       	ldd	r25, Y+38	; 0x26
    168a:	88 0f       	add	r24, r24
    168c:	99 1f       	adc	r25, r25
    168e:	fc 01       	movw	r30, r24
    1690:	ee 0f       	add	r30, r30
    1692:	ff 1f       	adc	r31, r31
    1694:	ee 0f       	add	r30, r30
    1696:	ff 1f       	adc	r31, r31
    1698:	ee 0f       	add	r30, r30
    169a:	ff 1f       	adc	r31, r31
    169c:	8e 0f       	add	r24, r30
    169e:	9f 1f       	adc	r25, r31
    16a0:	fc 01       	movw	r30, r24
    16a2:	ec 56       	subi	r30, 0x6C	; 108
    16a4:	fd 4f       	sbci	r31, 0xFD	; 253
    16a6:	60 89       	ldd	r22, Z+16	; 0x10
    16a8:	71 89       	ldd	r23, Z+17	; 0x11
    16aa:	88 27       	eor	r24, r24
    16ac:	77 fd       	sbrc	r23, 7
    16ae:	80 95       	com	r24
    16b0:	98 2f       	mov	r25, r24
    16b2:	a0 d4       	rcall	.+2368   	; 0x1ff4 <__floatsisf>
    16b4:	6b 01       	movw	r12, r22
    16b6:	7c 01       	movw	r14, r24
    16b8:	09 a7       	std	Y+41, r16	; 0x29
    16ba:	1a a7       	std	Y+42, r17	; 0x2a
    16bc:	1a a3       	std	Y+34, r17	; 0x22
    16be:	09 a3       	std	Y+33, r16	; 0x21
    16c0:	18 01       	movw	r2, r16
    16c2:	06 2d       	mov	r16, r6
    16c4:	17 2d       	mov	r17, r7
    16c6:	45 01       	movw	r8, r10
    16c8:	aa 24       	eor	r10, r10
    16ca:	97 fc       	sbrc	r9, 7
    16cc:	a0 94       	com	r10
    16ce:	ba 2c       	mov	r11, r10
    16d0:	d8 01       	movw	r26, r16
    16d2:	ed 91       	ld	r30, X+
    16d4:	fd 91       	ld	r31, X+
    16d6:	8d 01       	movw	r16, r26
    16d8:	fc a3       	std	Y+36, r31	; 0x24
    16da:	eb a3       	std	Y+35, r30	; 0x23
    16dc:	c5 01       	movw	r24, r10
    16de:	b4 01       	movw	r22, r8
    16e0:	89 d4       	rcall	.+2322   	; 0x1ff4 <__floatsisf>
    16e2:	2b 01       	movw	r4, r22
    16e4:	3c 01       	movw	r6, r24
    16e6:	2b a1       	ldd	r18, Y+35	; 0x23
    16e8:	3c a1       	ldd	r19, Y+36	; 0x24
    16ea:	b9 01       	movw	r22, r18
    16ec:	88 27       	eor	r24, r24
    16ee:	77 fd       	sbrc	r23, 7
    16f0:	80 95       	com	r24
    16f2:	98 2f       	mov	r25, r24
    16f4:	7f d4       	rcall	.+2302   	; 0x1ff4 <__floatsisf>
    16f6:	a3 01       	movw	r20, r6
    16f8:	92 01       	movw	r18, r4
    16fa:	e1 d3       	rcall	.+1986   	; 0x1ebe <__divsf3>
    16fc:	9b 01       	movw	r18, r22
    16fe:	ac 01       	movw	r20, r24
    1700:	c7 01       	movw	r24, r14
    1702:	b6 01       	movw	r22, r12
    1704:	03 d5       	rcall	.+2566   	; 0x210c <__mulsf3>
    1706:	43 d4       	rcall	.+2182   	; 0x1f8e <__fixsfsi>
		if( speed[i] == 0 ){
    1708:	61 15       	cp	r22, r1
    170a:	71 05       	cpc	r23, r1
    170c:	21 f0       	breq	.+8      	; 0x1716 <ServoControl+0x182>
	}
//	motionFirst = act;
	
	int speed[SERVO_MAX] = {100};
	for(int i=0; i<SERVO_MAX; i++ ){
		speed[i] = (int)((float)(angleList[act][SERVO_MAX]) * ((float)angleDiff[i] / diffMax));
    170e:	d1 01       	movw	r26, r2
    1710:	6d 93       	st	X+, r22
    1712:	7c 93       	st	X, r23
    1714:	05 c0       	rjmp	.+10     	; 0x1720 <ServoControl+0x18c>
		if( speed[i] == 0 ){
			speed[i] = 1;
    1716:	21 e0       	ldi	r18, 0x01	; 1
    1718:	30 e0       	ldi	r19, 0x00	; 0
    171a:	f1 01       	movw	r30, r2
    171c:	31 83       	std	Z+1, r19	; 0x01
    171e:	20 83       	st	Z, r18
    1720:	32 e0       	ldi	r19, 0x02	; 2
    1722:	23 0e       	add	r2, r19
    1724:	31 1c       	adc	r3, r1
		}
	}
//	motionFirst = act;
	
	int speed[SERVO_MAX] = {100};
	for(int i=0; i<SERVO_MAX; i++ ){
    1726:	49 a1       	ldd	r20, Y+33	; 0x21
    1728:	5a a1       	ldd	r21, Y+34	; 0x22
    172a:	04 17       	cp	r16, r20
    172c:	15 07       	cpc	r17, r21
    172e:	81 f6       	brne	.-96     	; 0x16d0 <ServoControl+0x13c>
		}
	}

//    diffmaxTest[motionCount-1] = diffMax;
//	movingTime = ((float)CYCLE_TIME/VALUE_MAX) * ((float)VALUE_MAX / angleList[act][SERVO_MAX]) * diffMax;
    movingTime = diffMax * (float)(((VALUE_MAX*10)/angleList[act][SERVO_MAX])/2);
    1730:	8d a1       	ldd	r24, Y+37	; 0x25
    1732:	9e a1       	ldd	r25, Y+38	; 0x26
    1734:	88 0f       	add	r24, r24
    1736:	99 1f       	adc	r25, r25
    1738:	fc 01       	movw	r30, r24
    173a:	ee 0f       	add	r30, r30
    173c:	ff 1f       	adc	r31, r31
    173e:	ee 0f       	add	r30, r30
    1740:	ff 1f       	adc	r31, r31
    1742:	ee 0f       	add	r30, r30
    1744:	ff 1f       	adc	r31, r31
    1746:	8e 0f       	add	r24, r30
    1748:	9f 1f       	adc	r25, r31
    174a:	fc 01       	movw	r30, r24
    174c:	ec 56       	subi	r30, 0x6C	; 108
    174e:	fd 4f       	sbci	r31, 0xFD	; 253
    1750:	60 89       	ldd	r22, Z+16	; 0x10
    1752:	71 89       	ldd	r23, Z+17	; 0x11
    1754:	8b ef       	ldi	r24, 0xFB	; 251
    1756:	93 e1       	ldi	r25, 0x13	; 19
    1758:	68 d5       	rcall	.+2768   	; 0x222a <__divmodhi4>
    175a:	88 27       	eor	r24, r24
    175c:	77 fd       	sbrc	r23, 7
    175e:	80 95       	com	r24
    1760:	98 2f       	mov	r25, r24
    1762:	48 d4       	rcall	.+2192   	; 0x1ff4 <__floatsisf>
    1764:	9b 01       	movw	r18, r22
    1766:	ac 01       	movw	r20, r24
    1768:	c3 01       	movw	r24, r6
    176a:	b2 01       	movw	r22, r4
    176c:	cf d4       	rcall	.+2462   	; 0x210c <__mulsf3>
    176e:	0f d4       	rcall	.+2078   	; 0x1f8e <__fixsfsi>
	if( movingTime < MAIN_DELAY ){
    1770:	68 3e       	cpi	r22, 0xE8	; 232
    1772:	53 e0       	ldi	r21, 0x03	; 3
    1774:	75 07       	cpc	r23, r21
    1776:	2c f0       	brlt	.+10     	; 0x1782 <ServoControl+0x1ee>
		}
	}

//    diffmaxTest[motionCount-1] = diffMax;
//	movingTime = ((float)CYCLE_TIME/VALUE_MAX) * ((float)VALUE_MAX / angleList[act][SERVO_MAX]) * diffMax;
    movingTime = diffMax * (float)(((VALUE_MAX*10)/angleList[act][SERVO_MAX])/2);
    1778:	70 93 63 0c 	sts	0x0C63, r23
    177c:	60 93 62 0c 	sts	0x0C62, r22
    1780:	06 c0       	rjmp	.+12     	; 0x178e <ServoControl+0x1fa>
	if( movingTime < MAIN_DELAY ){
		movingTime = MAIN_DELAY;
    1782:	88 ee       	ldi	r24, 0xE8	; 232
    1784:	93 e0       	ldi	r25, 0x03	; 3
    1786:	90 93 63 0c 	sts	0x0C63, r25
    178a:	80 93 62 0c 	sts	0x0C62, r24
	}
	
	//Speed
	dxl_set_txpacket_id(BROADCAST_ID);
    178e:	8e ef       	ldi	r24, 0xFE	; 254
    1790:	90 e0       	ldi	r25, 0x00	; 0
    1792:	0e 94 8d 00 	call	0x11a	; 0x11a <dxl_set_txpacket_id>
	dxl_set_txpacket_instruction(INST_SYNC_WRITE);
    1796:	83 e8       	ldi	r24, 0x83	; 131
    1798:	90 e0       	ldi	r25, 0x00	; 0
    179a:	0e 94 90 00 	call	0x120	; 0x120 <dxl_set_txpacket_instruction>
	dxl_set_txpacket_parameter(0, P_GOAL_SPEED_L);
    179e:	60 e2       	ldi	r22, 0x20	; 32
    17a0:	70 e0       	ldi	r23, 0x00	; 0
    17a2:	80 e0       	ldi	r24, 0x00	; 0
    17a4:	90 e0       	ldi	r25, 0x00	; 0
    17a6:	0e 94 93 00 	call	0x126	; 0x126 <dxl_set_txpacket_parameter>
	dxl_set_txpacket_parameter(1, 2);
    17aa:	62 e0       	ldi	r22, 0x02	; 2
    17ac:	70 e0       	ldi	r23, 0x00	; 0
    17ae:	81 e0       	ldi	r24, 0x01	; 1
    17b0:	90 e0       	ldi	r25, 0x00	; 0
    17b2:	0e 94 93 00 	call	0x126	; 0x126 <dxl_set_txpacket_parameter>
    17b6:	c9 a4       	ldd	r12, Y+41	; 0x29
    17b8:	da a4       	ldd	r13, Y+42	; 0x2a
    17ba:	0f 2e       	mov	r0, r31
    17bc:	f8 e1       	ldi	r31, 0x18	; 24
    17be:	af 2e       	mov	r10, r31
    17c0:	f6 e0       	ldi	r31, 0x06	; 6
    17c2:	bf 2e       	mov	r11, r31
    17c4:	f0 2d       	mov	r31, r0
    17c6:	02 e0       	ldi	r16, 0x02	; 2
    17c8:	10 e0       	ldi	r17, 0x00	; 0
	for( i=0; i<SERVO_MAX; i++ ){
		dxl_set_txpacket_parameter(2+(3*i), servoId[i]);
    17ca:	d5 01       	movw	r26, r10
    17cc:	6d 91       	ld	r22, X+
    17ce:	7d 91       	ld	r23, X+
    17d0:	5d 01       	movw	r10, r26
    17d2:	c8 01       	movw	r24, r16
    17d4:	0e 94 93 00 	call	0x126	; 0x126 <dxl_set_txpacket_parameter>
		dxl_set_txpacket_parameter(3+(3*i), dxl_get_lowbyte(speed[i]));
    17d8:	f6 01       	movw	r30, r12
    17da:	e1 90       	ld	r14, Z+
    17dc:	f1 90       	ld	r15, Z+
    17de:	6f 01       	movw	r12, r30
    17e0:	c7 01       	movw	r24, r14
    17e2:	0e 94 b5 00 	call	0x16a	; 0x16a <dxl_get_lowbyte>
    17e6:	bc 01       	movw	r22, r24
    17e8:	c8 01       	movw	r24, r16
    17ea:	01 96       	adiw	r24, 0x01	; 1
    17ec:	0e 94 93 00 	call	0x126	; 0x126 <dxl_set_txpacket_parameter>
		dxl_set_txpacket_parameter(4+(3*i), dxl_get_highbyte(speed[i]));
    17f0:	c7 01       	movw	r24, r14
    17f2:	0e 94 b9 00 	call	0x172	; 0x172 <dxl_get_highbyte>
    17f6:	bc 01       	movw	r22, r24
    17f8:	c8 01       	movw	r24, r16
    17fa:	02 96       	adiw	r24, 0x02	; 2
    17fc:	0e 94 93 00 	call	0x126	; 0x126 <dxl_set_txpacket_parameter>
    1800:	0d 5f       	subi	r16, 0xFD	; 253
    1802:	1f 4f       	sbci	r17, 0xFF	; 255
	//Speed
	dxl_set_txpacket_id(BROADCAST_ID);
	dxl_set_txpacket_instruction(INST_SYNC_WRITE);
	dxl_set_txpacket_parameter(0, P_GOAL_SPEED_L);
	dxl_set_txpacket_parameter(1, 2);
	for( i=0; i<SERVO_MAX; i++ ){
    1804:	0a 31       	cpi	r16, 0x1A	; 26
    1806:	11 05       	cpc	r17, r1
    1808:	01 f7       	brne	.-64     	; 0x17ca <ServoControl+0x236>
		dxl_set_txpacket_parameter(2+(3*i), servoId[i]);
		dxl_set_txpacket_parameter(3+(3*i), dxl_get_lowbyte(speed[i]));
		dxl_set_txpacket_parameter(4+(3*i), dxl_get_highbyte(speed[i]));
	}
	dxl_set_txpacket_length(4+3*SERVO_MAX);
    180a:	8c e1       	ldi	r24, 0x1C	; 28
    180c:	90 e0       	ldi	r25, 0x00	; 0
    180e:	0e 94 98 00 	call	0x130	; 0x130 <dxl_set_txpacket_length>
	dxl_txrx_packet();
    1812:	0e 94 ec 01 	call	0x3d8	; 0x3d8 <dxl_txrx_packet>
	CommStatus = dxl_get_result();
    1816:	0e 94 88 00 	call	0x110	; 0x110 <dxl_get_result>
	if( CommStatus == COMM_RXSUCCESS ){
    181a:	81 30       	cpi	r24, 0x01	; 1
    181c:	91 05       	cpc	r25, r1
    181e:	09 f0       	breq	.+2      	; 0x1822 <ServoControl+0x28e>
    1820:	50 c0       	rjmp	.+160    	; 0x18c2 <ServoControl+0x32e>
		PrintErrorCode();
    1822:	08 de       	rcall	.-1008   	; 0x1434 <PrintErrorCode>
		
		//Angle
		dxl_set_txpacket_id(BROADCAST_ID);
    1824:	8e ef       	ldi	r24, 0xFE	; 254
    1826:	90 e0       	ldi	r25, 0x00	; 0
    1828:	0e 94 8d 00 	call	0x11a	; 0x11a <dxl_set_txpacket_id>
		dxl_set_txpacket_instruction(INST_SYNC_WRITE);
    182c:	83 e8       	ldi	r24, 0x83	; 131
    182e:	90 e0       	ldi	r25, 0x00	; 0
    1830:	0e 94 90 00 	call	0x120	; 0x120 <dxl_set_txpacket_instruction>
		dxl_set_txpacket_parameter(0, P_GOAL_POSITION_L);
    1834:	6e e1       	ldi	r22, 0x1E	; 30
    1836:	70 e0       	ldi	r23, 0x00	; 0
    1838:	80 e0       	ldi	r24, 0x00	; 0
    183a:	90 e0       	ldi	r25, 0x00	; 0
    183c:	0e 94 93 00 	call	0x126	; 0x126 <dxl_set_txpacket_parameter>
		dxl_set_txpacket_parameter(1, 2);
    1840:	62 e0       	ldi	r22, 0x02	; 2
    1842:	70 e0       	ldi	r23, 0x00	; 0
    1844:	81 e0       	ldi	r24, 0x01	; 1
    1846:	90 e0       	ldi	r25, 0x00	; 0
    1848:	0e 94 93 00 	call	0x126	; 0x126 <dxl_set_txpacket_parameter>
    184c:	ef a0       	ldd	r14, Y+39	; 0x27
    184e:	f8 a4       	ldd	r15, Y+40	; 0x28
    1850:	0f 2e       	mov	r0, r31
    1852:	f8 e1       	ldi	r31, 0x18	; 24
    1854:	cf 2e       	mov	r12, r31
    1856:	f6 e0       	ldi	r31, 0x06	; 6
    1858:	df 2e       	mov	r13, r31
    185a:	f0 2d       	mov	r31, r0
    185c:	02 e0       	ldi	r16, 0x02	; 2
    185e:	10 e0       	ldi	r17, 0x00	; 0
		for( i=0; i<SERVO_MAX; i++ ){
			dxl_set_txpacket_parameter(2+(3*i), servoId[i]);
    1860:	d6 01       	movw	r26, r12
    1862:	6d 91       	ld	r22, X+
    1864:	7d 91       	ld	r23, X+
    1866:	6d 01       	movw	r12, r26
    1868:	c8 01       	movw	r24, r16
    186a:	0e 94 93 00 	call	0x126	; 0x126 <dxl_set_txpacket_parameter>
    186e:	57 01       	movw	r10, r14
			dxl_set_txpacket_parameter(3+(3*i), dxl_get_lowbyte(angleList[act][i]));
    1870:	f7 01       	movw	r30, r14
    1872:	81 91       	ld	r24, Z+
    1874:	91 91       	ld	r25, Z+
    1876:	7f 01       	movw	r14, r30
    1878:	0e 94 b5 00 	call	0x16a	; 0x16a <dxl_get_lowbyte>
    187c:	bc 01       	movw	r22, r24
    187e:	c8 01       	movw	r24, r16
    1880:	01 96       	adiw	r24, 0x01	; 1
    1882:	0e 94 93 00 	call	0x126	; 0x126 <dxl_set_txpacket_parameter>
			dxl_set_txpacket_parameter(4+(3*i), dxl_get_highbyte(angleList[act][i]));
    1886:	d5 01       	movw	r26, r10
    1888:	8d 91       	ld	r24, X+
    188a:	9c 91       	ld	r25, X
    188c:	0e 94 b9 00 	call	0x172	; 0x172 <dxl_get_highbyte>
    1890:	bc 01       	movw	r22, r24
    1892:	c8 01       	movw	r24, r16
    1894:	02 96       	adiw	r24, 0x02	; 2
    1896:	0e 94 93 00 	call	0x126	; 0x126 <dxl_set_txpacket_parameter>
    189a:	0d 5f       	subi	r16, 0xFD	; 253
    189c:	1f 4f       	sbci	r17, 0xFF	; 255
		//Angle
		dxl_set_txpacket_id(BROADCAST_ID);
		dxl_set_txpacket_instruction(INST_SYNC_WRITE);
		dxl_set_txpacket_parameter(0, P_GOAL_POSITION_L);
		dxl_set_txpacket_parameter(1, 2);
		for( i=0; i<SERVO_MAX; i++ ){
    189e:	0a 31       	cpi	r16, 0x1A	; 26
    18a0:	11 05       	cpc	r17, r1
    18a2:	f1 f6       	brne	.-68     	; 0x1860 <ServoControl+0x2cc>
			dxl_set_txpacket_parameter(2+(3*i), servoId[i]);
			dxl_set_txpacket_parameter(3+(3*i), dxl_get_lowbyte(angleList[act][i]));
			dxl_set_txpacket_parameter(4+(3*i), dxl_get_highbyte(angleList[act][i]));
		}
		dxl_set_txpacket_length(4+3*SERVO_MAX);
    18a4:	8c e1       	ldi	r24, 0x1C	; 28
    18a6:	90 e0       	ldi	r25, 0x00	; 0
    18a8:	0e 94 98 00 	call	0x130	; 0x130 <dxl_set_txpacket_length>
		dxl_txrx_packet();
    18ac:	0e 94 ec 01 	call	0x3d8	; 0x3d8 <dxl_txrx_packet>
		CommStatus = dxl_get_result();
    18b0:	0e 94 88 00 	call	0x110	; 0x110 <dxl_get_result>
		if( CommStatus == COMM_RXSUCCESS ){
    18b4:	81 30       	cpi	r24, 0x01	; 1
    18b6:	91 05       	cpc	r25, r1
    18b8:	11 f4       	brne	.+4      	; 0x18be <ServoControl+0x32a>
			PrintErrorCode();
    18ba:	bc dd       	rcall	.-1160   	; 0x1434 <PrintErrorCode>
    18bc:	03 c0       	rjmp	.+6      	; 0x18c4 <ServoControl+0x330>
		}else{
			PrintCommStatus(CommStatus);
    18be:	fb dd       	rcall	.-1034   	; 0x14b6 <PrintCommStatus>
    18c0:	01 c0       	rjmp	.+2      	; 0x18c4 <ServoControl+0x330>
		}
	}else{
		PrintCommStatus(CommStatus);
    18c2:	f9 dd       	rcall	.-1038   	; 0x14b6 <PrintCommStatus>
	}
}
    18c4:	aa 96       	adiw	r28, 0x2a	; 42
    18c6:	0f b6       	in	r0, 0x3f	; 63
    18c8:	f8 94       	cli
    18ca:	de bf       	out	0x3e, r29	; 62
    18cc:	0f be       	out	0x3f, r0	; 63
    18ce:	cd bf       	out	0x3d, r28	; 61
    18d0:	df 91       	pop	r29
    18d2:	cf 91       	pop	r28
    18d4:	1f 91       	pop	r17
    18d6:	0f 91       	pop	r16
    18d8:	ff 90       	pop	r15
    18da:	ef 90       	pop	r14
    18dc:	df 90       	pop	r13
    18de:	cf 90       	pop	r12
    18e0:	bf 90       	pop	r11
    18e2:	af 90       	pop	r10
    18e4:	9f 90       	pop	r9
    18e6:	8f 90       	pop	r8
    18e8:	7f 90       	pop	r7
    18ea:	6f 90       	pop	r6
    18ec:	5f 90       	pop	r5
    18ee:	4f 90       	pop	r4
    18f0:	3f 90       	pop	r3
    18f2:	2f 90       	pop	r2
    18f4:	08 95       	ret

000018f6 <setMode>:
}

void setMode(void){
	//		PORTC = ~(LED_BAT|LED_TxD|LED_RxD|LED_AUX|LED_MANAGE|LED_PROGRAM|LED_PLAY);
	//		PORTC = LED_BAT|LED_TxD|LED_RxD|LED_AUX|LED_MANAGE|LED_PROGRAM|LED_PLAY;
	if( ~PIND & SW_BUTTON ){
    18f6:	48 99       	sbic	0x09, 0	; 9
    18f8:	0e c0       	rjmp	.+28     	; 0x1916 <setMode+0x20>
//        printf( "PIND is OFF\n");
		if( SwitchSts == 0 ){
    18fa:	80 91 6e 0c 	lds	r24, 0x0C6E
    18fe:	90 91 6f 0c 	lds	r25, 0x0C6F
    1902:	89 2b       	or	r24, r25
    1904:	09 f0       	breq	.+2      	; 0x1908 <setMode+0x12>
    1906:	50 c0       	rjmp	.+160    	; 0x19a8 <setMode+0xb2>
			SwitchSts = 1;
    1908:	81 e0       	ldi	r24, 0x01	; 1
    190a:	90 e0       	ldi	r25, 0x00	; 0
    190c:	90 93 6f 0c 	sts	0x0C6F, r25
    1910:	80 93 6e 0c 	sts	0x0C6E, r24
    1914:	08 95       	ret
		}
	}else{
//		printf( "PIND is ON\n");	
		if( SwitchSts == 1 ){
    1916:	80 91 6e 0c 	lds	r24, 0x0C6E
    191a:	90 91 6f 0c 	lds	r25, 0x0C6F
    191e:	01 97       	sbiw	r24, 0x01	; 1
    1920:	09 f0       	breq	.+2      	; 0x1924 <setMode+0x2e>
    1922:	42 c0       	rjmp	.+132    	; 0x19a8 <setMode+0xb2>
			SwitchSts = 0;
    1924:	10 92 6f 0c 	sts	0x0C6F, r1
    1928:	10 92 6e 0c 	sts	0x0C6E, r1
			mMode++;
    192c:	80 91 70 0c 	lds	r24, 0x0C70
    1930:	90 91 71 0c 	lds	r25, 0x0C71
    1934:	9c 01       	movw	r18, r24
    1936:	2f 5f       	subi	r18, 0xFF	; 255
    1938:	3f 4f       	sbci	r19, 0xFF	; 255
    193a:	30 93 71 0c 	sts	0x0C71, r19
    193e:	20 93 70 0c 	sts	0x0C70, r18
			if( (LED_MAX - mMode) <= 0 ){
    1942:	26 e0       	ldi	r18, 0x06	; 6
    1944:	30 e0       	ldi	r19, 0x00	; 0
    1946:	a9 01       	movw	r20, r18
    1948:	48 1b       	sub	r20, r24
    194a:	59 0b       	sbc	r21, r25
    194c:	ca 01       	movw	r24, r20
    194e:	18 16       	cp	r1, r24
    1950:	19 06       	cpc	r1, r25
    1952:	3c f0       	brlt	.+14     	; 0x1962 <setMode+0x6c>
				PORTC = LED_BAT|LED_TxD|LED_RxD|LED_AUX|LED_MANAGE|LED_PROGRAM;
    1954:	8f e3       	ldi	r24, 0x3F	; 63
    1956:	88 b9       	out	0x08, r24	; 8
				mMode = MODE_0;
    1958:	10 92 71 0c 	sts	0x0C71, r1
    195c:	10 92 70 0c 	sts	0x0C70, r1
    1960:	0b c0       	rjmp	.+22     	; 0x1978 <setMode+0x82>
			}else{
				PORTC = ~(1 << (LED_MAX - mMode));
    1962:	21 e0       	ldi	r18, 0x01	; 1
    1964:	30 e0       	ldi	r19, 0x00	; 0
    1966:	a9 01       	movw	r20, r18
    1968:	02 c0       	rjmp	.+4      	; 0x196e <setMode+0x78>
    196a:	44 0f       	add	r20, r20
    196c:	55 1f       	adc	r21, r21
    196e:	8a 95       	dec	r24
    1970:	e2 f7       	brpl	.-8      	; 0x196a <setMode+0x74>
    1972:	ca 01       	movw	r24, r20
    1974:	80 95       	com	r24
    1976:	88 b9       	out	0x08, r24	; 8
			}
			stopMotion();
    1978:	48 dd       	rcall	.-1392   	; 0x140a <stopMotion>
			ServoControl( 0 );
    197a:	80 e0       	ldi	r24, 0x00	; 0
    197c:	90 e0       	ldi	r25, 0x00	; 0
    197e:	0a de       	rcall	.-1004   	; 0x1594 <ServoControl>

			modeCounter = 1;
    1980:	81 e0       	ldi	r24, 0x01	; 1
    1982:	90 e0       	ldi	r25, 0x00	; 0
    1984:	90 93 6b 0c 	sts	0x0C6B, r25
    1988:	80 93 6a 0c 	sts	0x0C6A, r24
			if( mMode == MODE_1 ){
    198c:	80 91 70 0c 	lds	r24, 0x0C70
    1990:	90 91 71 0c 	lds	r25, 0x0C71
    1994:	01 97       	sbiw	r24, 0x01	; 1
    1996:	41 f4       	brne	.+16     	; 0x19a8 <setMode+0xb2>
				modeWait = mode1act[0][0];
    1998:	80 91 0e 02 	lds	r24, 0x020E
    199c:	90 91 0f 02 	lds	r25, 0x020F
    19a0:	90 93 6d 0c 	sts	0x0C6D, r25
    19a4:	80 93 6c 0c 	sts	0x0C6C, r24
    19a8:	08 95       	ret

000019aa <move>:
	motionTimes = 0;
	motionTime = 0;
	motionFirst = -1;
}

void move(void){
    19aa:	0f 93       	push	r16
    19ac:	1f 93       	push	r17
    19ae:	cf 93       	push	r28
    19b0:	df 93       	push	r29
	if( /* motionTimes > 0 && */ isMoving() == 0 ){
    19b2:	8d da       	rcall	.-2790   	; 0xece <isMoving>
    19b4:	89 2b       	or	r24, r25
    19b6:	09 f0       	breq	.+2      	; 0x19ba <move+0x10>
    19b8:	c5 c0       	rjmp	.+394    	; 0x1b44 <move+0x19a>
		int *motion = motionList[motionNumber];
    19ba:	80 91 68 0c 	lds	r24, 0x0C68
    19be:	90 91 69 0c 	lds	r25, 0x0C69
    19c2:	fc 01       	movw	r30, r24
    19c4:	ee 0f       	add	r30, r30
    19c6:	ff 1f       	adc	r31, r31
    19c8:	e6 5c       	subi	r30, 0xC6	; 198
    19ca:	fd 4f       	sbci	r31, 0xFD	; 253
    19cc:	c0 81       	ld	r28, Z
    19ce:	d1 81       	ldd	r29, Z+1	; 0x01
//        printf("### motionNumber = %d, motion = %d\n", motionNumber, *motion);
		int max = motion[0];
    19d0:	08 81       	ld	r16, Y
    19d2:	19 81       	ldd	r17, Y+1	; 0x01
		if( motionCount > max ){
    19d4:	20 91 0c 02 	lds	r18, 0x020C
    19d8:	30 91 0d 02 	lds	r19, 0x020D
    19dc:	02 17       	cp	r16, r18
    19de:	13 07       	cpc	r17, r19
    19e0:	0c f0       	brlt	.+2      	; 0x19e4 <move+0x3a>
    19e2:	8d c0       	rjmp	.+282    	; 0x1afe <move+0x154>
			if (motionNumber != ACT_WALK2) {
    19e4:	03 97       	sbiw	r24, 0x03	; 3
    19e6:	51 f0       	breq	.+20     	; 0x19fc <move+0x52>
		        printf("### move 1\n");
    19e8:	85 e4       	ldi	r24, 0x45	; 69
    19ea:	98 e0       	ldi	r25, 0x08	; 8
    19ec:	2d d5       	rcall	.+2650   	; 0x2448 <puts>
				motionNumber = ACT_WALK2;
    19ee:	83 e0       	ldi	r24, 0x03	; 3
    19f0:	90 e0       	ldi	r25, 0x00	; 0
    19f2:	90 93 69 0c 	sts	0x0C69, r25
    19f6:	80 93 68 0c 	sts	0x0C68, r24
    19fa:	68 c0       	rjmp	.+208    	; 0x1acc <move+0x122>
			}else{
				if (sensorValue[2] == 1) {
    19fc:	80 91 56 0c 	lds	r24, 0x0C56
    1a00:	90 91 57 0c 	lds	r25, 0x0C57
    1a04:	01 97       	sbiw	r24, 0x01	; 1
    1a06:	71 f4       	brne	.+28     	; 0x1a24 <move+0x7a>
    		        printf("### move 2\n");
    1a08:	80 e5       	ldi	r24, 0x50	; 80
    1a0a:	98 e0       	ldi	r25, 0x08	; 8
    1a0c:	1d d5       	rcall	.+2618   	; 0x2448 <puts>
					motionNumber = ACT_TURN_LEFT;
    1a0e:	84 e0       	ldi	r24, 0x04	; 4
    1a10:	90 e0       	ldi	r25, 0x00	; 0
    1a12:	90 93 69 0c 	sts	0x0C69, r25
    1a16:	80 93 68 0c 	sts	0x0C68, r24
					walkCounter = 0;
    1a1a:	10 92 4b 0c 	sts	0x0C4B, r1
    1a1e:	10 92 4a 0c 	sts	0x0C4A, r1
    1a22:	54 c0       	rjmp	.+168    	; 0x1acc <move+0x122>
				} else if (sensorValue[0] == 1 && sensorValue[1] == 1) {
    1a24:	80 91 52 0c 	lds	r24, 0x0C52
    1a28:	90 91 53 0c 	lds	r25, 0x0C53
    1a2c:	81 30       	cpi	r24, 0x01	; 1
    1a2e:	91 05       	cpc	r25, r1
    1a30:	f9 f4       	brne	.+62     	; 0x1a70 <move+0xc6>
    1a32:	80 91 54 0c 	lds	r24, 0x0C54
    1a36:	90 91 55 0c 	lds	r25, 0x0C55
    1a3a:	81 30       	cpi	r24, 0x01	; 1
    1a3c:	91 05       	cpc	r25, r1
    1a3e:	71 f4       	brne	.+28     	; 0x1a5c <move+0xb2>
					printf("### move 3\n");
    1a40:	8b e5       	ldi	r24, 0x5B	; 91
    1a42:	98 e0       	ldi	r25, 0x08	; 8
    1a44:	01 d5       	rcall	.+2562   	; 0x2448 <puts>
					motionNumber = ACT_WALK2;
    1a46:	83 e0       	ldi	r24, 0x03	; 3
    1a48:	90 e0       	ldi	r25, 0x00	; 0
    1a4a:	90 93 69 0c 	sts	0x0C69, r25
    1a4e:	80 93 68 0c 	sts	0x0C68, r24
					walkCounter = 0;
    1a52:	10 92 4b 0c 	sts	0x0C4B, r1
    1a56:	10 92 4a 0c 	sts	0x0C4A, r1
    1a5a:	38 c0       	rjmp	.+112    	; 0x1acc <move+0x122>
				} else if (sensorValue[0] == 1 && sensorValue[1] == 0) {
    1a5c:	89 2b       	or	r24, r25
    1a5e:	f1 f4       	brne	.+60     	; 0x1a9c <move+0xf2>
					printf("### move 4\n");
    1a60:	86 e6       	ldi	r24, 0x66	; 102
    1a62:	98 e0       	ldi	r25, 0x08	; 8
    1a64:	f1 d4       	rcall	.+2530   	; 0x2448 <puts>
//					motionNumber = ACT_TURN_LEFT;
                    walkCounter = 0;
    1a66:	10 92 4b 0c 	sts	0x0C4B, r1
    1a6a:	10 92 4a 0c 	sts	0x0C4A, r1
    1a6e:	2e c0       	rjmp	.+92     	; 0x1acc <move+0x122>
				} else if (sensorValue[0] == 0 && sensorValue[1] == 1) {
    1a70:	89 2b       	or	r24, r25
    1a72:	a1 f4       	brne	.+40     	; 0x1a9c <move+0xf2>
    1a74:	80 91 54 0c 	lds	r24, 0x0C54
    1a78:	90 91 55 0c 	lds	r25, 0x0C55
    1a7c:	01 97       	sbiw	r24, 0x01	; 1
    1a7e:	71 f4       	brne	.+28     	; 0x1a9c <move+0xf2>
					printf("### move 5\n");
    1a80:	81 e7       	ldi	r24, 0x71	; 113
    1a82:	98 e0       	ldi	r25, 0x08	; 8
    1a84:	e1 d4       	rcall	.+2498   	; 0x2448 <puts>
					motionNumber = ACT_TURN_RIGHT;
    1a86:	85 e0       	ldi	r24, 0x05	; 5
    1a88:	90 e0       	ldi	r25, 0x00	; 0
    1a8a:	90 93 69 0c 	sts	0x0C69, r25
    1a8e:	80 93 68 0c 	sts	0x0C68, r24
					walkCounter = 0;
    1a92:	10 92 4b 0c 	sts	0x0C4B, r1
    1a96:	10 92 4a 0c 	sts	0x0C4A, r1
    1a9a:	18 c0       	rjmp	.+48     	; 0x1acc <move+0x122>
				} else if (++walkCounter > 5) {
    1a9c:	80 91 4a 0c 	lds	r24, 0x0C4A
    1aa0:	90 91 4b 0c 	lds	r25, 0x0C4B
    1aa4:	01 96       	adiw	r24, 0x01	; 1
    1aa6:	90 93 4b 0c 	sts	0x0C4B, r25
    1aaa:	80 93 4a 0c 	sts	0x0C4A, r24
    1aae:	06 97       	sbiw	r24, 0x06	; 6
    1ab0:	6c f0       	brlt	.+26     	; 0x1acc <move+0x122>
					printf("### move 6\n");
    1ab2:	8c e7       	ldi	r24, 0x7C	; 124
    1ab4:	98 e0       	ldi	r25, 0x08	; 8
    1ab6:	c8 d4       	rcall	.+2448   	; 0x2448 <puts>
					motionNumber = ACT_TURN_LEFT;
    1ab8:	84 e0       	ldi	r24, 0x04	; 4
    1aba:	90 e0       	ldi	r25, 0x00	; 0
    1abc:	90 93 69 0c 	sts	0x0C69, r25
    1ac0:	80 93 68 0c 	sts	0x0C68, r24
					walkCounter = 0;
    1ac4:	10 92 4b 0c 	sts	0x0C4B, r1
    1ac8:	10 92 4a 0c 	sts	0x0C4A, r1
				}
			}
			
        printf("### motionCount > max. motionCount:%d, max:%d\n", motionCount, max);
    1acc:	1f 93       	push	r17
    1ace:	0f 93       	push	r16
    1ad0:	80 91 0d 02 	lds	r24, 0x020D
    1ad4:	8f 93       	push	r24
    1ad6:	80 91 0c 02 	lds	r24, 0x020C
    1ada:	8f 93       	push	r24
    1adc:	87 e8       	ldi	r24, 0x87	; 135
    1ade:	98 e0       	ldi	r25, 0x08	; 8
    1ae0:	9f 93       	push	r25
    1ae2:	8f 93       	push	r24
    1ae4:	a0 d4       	rcall	.+2368   	; 0x2426 <printf>
//			printf("#%d,%d,%d,%d,%d,%d;\n", diffmaxTest[0],diffmaxTest[1],diffmaxTest[2],diffmaxTest[3],diffmaxTest[4],diffmaxTest[5] );
			motionCount = 1;
    1ae6:	81 e0       	ldi	r24, 0x01	; 1
    1ae8:	90 e0       	ldi	r25, 0x00	; 0
    1aea:	90 93 0d 02 	sts	0x020D, r25
    1aee:	80 93 0c 02 	sts	0x020C, r24
    1af2:	0f 90       	pop	r0
    1af4:	0f 90       	pop	r0
    1af6:	0f 90       	pop	r0
    1af8:	0f 90       	pop	r0
    1afa:	0f 90       	pop	r0
    1afc:	0f 90       	pop	r0
				}
				return;
			}
			*/
		}
		printf("### motionCount:%d\n", motionCount);
    1afe:	80 91 0d 02 	lds	r24, 0x020D
    1b02:	8f 93       	push	r24
    1b04:	80 91 0c 02 	lds	r24, 0x020C
    1b08:	8f 93       	push	r24
    1b0a:	86 eb       	ldi	r24, 0xB6	; 182
    1b0c:	98 e0       	ldi	r25, 0x08	; 8
    1b0e:	9f 93       	push	r25
    1b10:	8f 93       	push	r24
    1b12:	89 d4       	rcall	.+2322   	; 0x2426 <printf>
		ServoControl( motion[motionCount] );
    1b14:	80 91 0c 02 	lds	r24, 0x020C
    1b18:	90 91 0d 02 	lds	r25, 0x020D
    1b1c:	88 0f       	add	r24, r24
    1b1e:	99 1f       	adc	r25, r25
    1b20:	c8 0f       	add	r28, r24
    1b22:	d9 1f       	adc	r29, r25
    1b24:	88 81       	ld	r24, Y
    1b26:	99 81       	ldd	r25, Y+1	; 0x01
    1b28:	35 dd       	rcall	.-1430   	; 0x1594 <ServoControl>
		motionCount++;
    1b2a:	80 91 0c 02 	lds	r24, 0x020C
    1b2e:	90 91 0d 02 	lds	r25, 0x020D
    1b32:	01 96       	adiw	r24, 0x01	; 1
    1b34:	90 93 0d 02 	sts	0x020D, r25
    1b38:	80 93 0c 02 	sts	0x020C, r24
    1b3c:	0f 90       	pop	r0
    1b3e:	0f 90       	pop	r0
    1b40:	0f 90       	pop	r0
    1b42:	0f 90       	pop	r0
	}
}
    1b44:	df 91       	pop	r29
    1b46:	cf 91       	pop	r28
    1b48:	1f 91       	pop	r17
    1b4a:	0f 91       	pop	r16
    1b4c:	08 95       	ret

00001b4e <main>:
	EVT_WATCH_DOG       = 10,
	EVT_MOTION_EDIT     = 11,
	EVT_MAX
	};

int main(void){
    1b4e:	2f 92       	push	r2
    1b50:	3f 92       	push	r3
    1b52:	4f 92       	push	r4
    1b54:	5f 92       	push	r5
    1b56:	6f 92       	push	r6
    1b58:	7f 92       	push	r7
    1b5a:	8f 92       	push	r8
    1b5c:	9f 92       	push	r9
    1b5e:	af 92       	push	r10
    1b60:	bf 92       	push	r11
    1b62:	cf 92       	push	r12
    1b64:	df 92       	push	r13
    1b66:	ef 92       	push	r14
    1b68:	ff 92       	push	r15
    1b6a:	0f 93       	push	r16
    1b6c:	1f 93       	push	r17
    1b6e:	cf 93       	push	r28
    1b70:	df 93       	push	r29
	//Start Switch
//	DDRA  = 0x00;
//	PORTA = 0x12;
	
	//Start PORT A for switch and IR sensors
	DDRA  = 0xFC;
    1b72:	8c ef       	ldi	r24, 0xFC	; 252
    1b74:	81 b9       	out	0x01, r24	; 1
	PORTA = 0xFE;
    1b76:	8e ef       	ldi	r24, 0xFE	; 254
    1b78:	82 b9       	out	0x02, r24	; 2
	
	//LED Initial
	DDRC  = 0x7F;
    1b7a:	8f e7       	ldi	r24, 0x7F	; 127
    1b7c:	87 b9       	out	0x07, r24	; 7
	PORTC = 0x7E;
    1b7e:	8e e7       	ldi	r24, 0x7E	; 126
    1b80:	88 b9       	out	0x08, r24	; 8
	DDRD  = 0x70;
    1b82:	80 e7       	ldi	r24, 0x70	; 112
    1b84:	8a b9       	out	0x0a, r24	; 10
	PORTD = 0x11;
    1b86:	81 e1       	ldi	r24, 0x11	; 17
    1b88:	8b b9       	out	0x0b, r24	; 11

	MotorInit();
    1b8a:	50 d9       	rcall	.-3424   	; 0xe2c <MotorInit>
	initSerial();
    1b8c:	59 d8       	rcall	.-3918   	; 0xc40 <initSerial>
	char * readData = NULL;	
	int isFinish = 0;

    sensorInit();
    1b8e:	c0 d8       	rcall	.-3712   	; 0xd10 <sensorInit>
		if( checkSerialRead() > 0 ){
			readData = getReadBuffer();
			if( readData != NULL ){
//				printf( "readData=%s\n", &readData[0] );
				split( &readData[0] );
				switch( serCmd[0] ){
    1b90:	0f 2e       	mov	r0, r31
    1b92:	f2 e7       	ldi	r31, 0x72	; 114
    1b94:	4f 2e       	mov	r4, r31
    1b96:	fc e0       	ldi	r31, 0x0C	; 12
    1b98:	5f 2e       	mov	r5, r31
    1b9a:	f0 2d       	mov	r31, r0
				}
				if( isFinish > 0 ){
					MotorControl( 0, 0 );
					break;
				}
				memset( readData, 0x00, SERIAL_BUFFER_SIZE );
    1b9c:	0f 2e       	mov	r0, r31
    1b9e:	f0 e5       	ldi	r31, 0x50	; 80
    1ba0:	2f 2e       	mov	r2, r31
    1ba2:	f0 2d       	mov	r31, r0
			}
		}
		memset( &serCmd[0], 0x00, sizeof(int) * SERIAL_BUFFER_SIZE );
    1ba4:	0f 2e       	mov	r0, r31
    1ba6:	f0 ea       	ldi	r31, 0xA0	; 160
    1ba8:	3f 2e       	mov	r3, r31
    1baa:	f0 2d       	mov	r31, r0
				move();
			}else{
				modeWait -= MAIN_DELAY;
			}
		}
		if (sensorValue[0] == 0 && sensorValueOld[0] != sensorValue[0]) {
    1bac:	0f 2e       	mov	r0, r31
    1bae:	f2 e5       	ldi	r31, 0x52	; 82
    1bb0:	cf 2e       	mov	r12, r31
    1bb2:	fc e0       	ldi	r31, 0x0C	; 12
    1bb4:	df 2e       	mov	r13, r31
    1bb6:	f0 2d       	mov	r31, r0
			printf( "### main() sensorValue[0] == 0\n");
			PORTC &= ~LED_PROGRAM;
		}else if (sensorValueOld[0] != sensorValue[0]){
    1bb8:	0f 2e       	mov	r0, r31
    1bba:	fc e4       	ldi	r31, 0x4C	; 76
    1bbc:	af 2e       	mov	r10, r31
    1bbe:	fc e0       	ldi	r31, 0x0C	; 12
    1bc0:	bf 2e       	mov	r11, r31
    1bc2:	f0 2d       	mov	r31, r0
			printf( "### main() sensorValue[0] == 1\n");
			PORTC = LED_BAT|LED_TxD|LED_RxD|LED_AUX|LED_MANAGE|LED_PLAY;
		}
		
		if (sensorValue[1] == 0 && sensorValueOld[1] != sensorValue[1]) {
    1bc4:	0f 2e       	mov	r0, r31
    1bc6:	f4 e5       	ldi	r31, 0x54	; 84
    1bc8:	ef 2e       	mov	r14, r31
    1bca:	fc e0       	ldi	r31, 0x0C	; 12
    1bcc:	ff 2e       	mov	r15, r31
    1bce:	f0 2d       	mov	r31, r0
			printf( "### main() sensorValue[1] == 0\n");
			PORTC &= ~LED_MANAGE;
		}else if (sensorValueOld[1] != sensorValue[1]){
    1bd0:	0f 2e       	mov	r0, r31
    1bd2:	fe e4       	ldi	r31, 0x4E	; 78
    1bd4:	8f 2e       	mov	r8, r31
    1bd6:	fc e0       	ldi	r31, 0x0C	; 12
    1bd8:	9f 2e       	mov	r9, r31
    1bda:	f0 2d       	mov	r31, r0
			printf( "### main() sensorValue[1] == 1\n");
			PORTC = LED_BAT|LED_TxD|LED_RxD|LED_AUX|LED_PROGRAM|LED_PLAY;
		}

		if (sensorValue[2] == 0 && sensorValueOld[2] != sensorValue[2]) {
    1bdc:	06 e5       	ldi	r16, 0x56	; 86
    1bde:	1c e0       	ldi	r17, 0x0C	; 12
			printf( "### main() sensorValue[2] == 0\n");
			PORTC &= ~LED_AUX;
		}else if (sensorValueOld[2] != sensorValue[2]){
    1be0:	0f 2e       	mov	r0, r31
    1be2:	f0 e5       	ldi	r31, 0x50	; 80
    1be4:	6f 2e       	mov	r6, r31
    1be6:	fc e0       	ldi	r31, 0x0C	; 12
    1be8:	7f 2e       	mov	r7, r31
    1bea:	f0 2d       	mov	r31, r0
	char * readData = NULL;	
	int isFinish = 0;

    sensorInit();
	while(1){
        sensorTest(0);
    1bec:	80 e0       	ldi	r24, 0x00	; 0
    1bee:	90 e0       	ldi	r25, 0x00	; 0
    1bf0:	a0 d8       	rcall	.-3776   	; 0xd32 <sensorTest>
        sensorTest(1);
    1bf2:	81 e0       	ldi	r24, 0x01	; 1
    1bf4:	90 e0       	ldi	r25, 0x00	; 0
    1bf6:	9d d8       	rcall	.-3782   	; 0xd32 <sensorTest>
        sensorTest(2);
    1bf8:	82 e0       	ldi	r24, 0x02	; 2
    1bfa:	90 e0       	ldi	r25, 0x00	; 0
    1bfc:	9a d8       	rcall	.-3788   	; 0xd32 <sensorTest>

		setMode();
    1bfe:	7b de       	rcall	.-778    	; 0x18f6 <setMode>
		
		if( checkSerialRead() > 0 ){
    1c00:	26 d8       	rcall	.-4020   	; 0xc4e <checkSerialRead>
    1c02:	18 16       	cp	r1, r24
    1c04:	19 06       	cpc	r1, r25
    1c06:	0c f0       	brlt	.+2      	; 0x1c0a <main+0xbc>
    1c08:	8a c0       	rjmp	.+276    	; 0x1d1e <main+0x1d0>
			readData = getReadBuffer();
    1c0a:	71 d8       	rcall	.-3870   	; 0xcee <getReadBuffer>
    1c0c:	ec 01       	movw	r28, r24
			if( readData != NULL ){
    1c0e:	00 97       	sbiw	r24, 0x00	; 0
    1c10:	09 f4       	brne	.+2      	; 0x1c14 <main+0xc6>
    1c12:	85 c0       	rjmp	.+266    	; 0x1d1e <main+0x1d0>
//				printf( "readData=%s\n", &readData[0] );
				split( &readData[0] );
    1c14:	2f d9       	rcall	.-3490   	; 0xe74 <split>
				switch( serCmd[0] ){
    1c16:	f2 01       	movw	r30, r4
    1c18:	80 81       	ld	r24, Z
    1c1a:	91 81       	ldd	r25, Z+1	; 0x01
    1c1c:	86 30       	cpi	r24, 0x06	; 6
    1c1e:	91 05       	cpc	r25, r1
    1c20:	09 f4       	brne	.+2      	; 0x1c24 <main+0xd6>
    1c22:	63 c0       	rjmp	.+198    	; 0x1cea <main+0x19c>
    1c24:	94 f4       	brge	.+36     	; 0x1c4a <main+0xfc>
    1c26:	82 30       	cpi	r24, 0x02	; 2
    1c28:	91 05       	cpc	r25, r1
    1c2a:	09 f4       	brne	.+2      	; 0x1c2e <main+0xe0>
    1c2c:	4a c0       	rjmp	.+148    	; 0x1cc2 <main+0x174>
    1c2e:	34 f4       	brge	.+12     	; 0x1c3c <main+0xee>
    1c30:	00 97       	sbiw	r24, 0x00	; 0
    1c32:	01 f1       	breq	.+64     	; 0x1c74 <main+0x126>
    1c34:	01 97       	sbiw	r24, 0x01	; 1
    1c36:	09 f4       	brne	.+2      	; 0x1c3a <main+0xec>
    1c38:	46 c0       	rjmp	.+140    	; 0x1cc6 <main+0x178>
    1c3a:	69 c0       	rjmp	.+210    	; 0x1d0e <main+0x1c0>
    1c3c:	84 30       	cpi	r24, 0x04	; 4
    1c3e:	91 05       	cpc	r25, r1
    1c40:	09 f4       	brne	.+2      	; 0x1c44 <main+0xf6>
    1c42:	4f c0       	rjmp	.+158    	; 0x1ce2 <main+0x194>
    1c44:	0c f4       	brge	.+2      	; 0x1c48 <main+0xfa>
    1c46:	40 c0       	rjmp	.+128    	; 0x1cc8 <main+0x17a>
    1c48:	4e c0       	rjmp	.+156    	; 0x1ce6 <main+0x198>
    1c4a:	89 30       	cpi	r24, 0x09	; 9
    1c4c:	91 05       	cpc	r25, r1
    1c4e:	79 f1       	breq	.+94     	; 0x1cae <main+0x160>
    1c50:	34 f4       	brge	.+12     	; 0x1c5e <main+0x110>
    1c52:	87 30       	cpi	r24, 0x07	; 7
    1c54:	91 05       	cpc	r25, r1
    1c56:	b9 f0       	breq	.+46     	; 0x1c86 <main+0x138>
    1c58:	08 97       	sbiw	r24, 0x08	; 8
    1c5a:	21 f1       	breq	.+72     	; 0x1ca4 <main+0x156>
    1c5c:	58 c0       	rjmp	.+176    	; 0x1d0e <main+0x1c0>
    1c5e:	8b 30       	cpi	r24, 0x0B	; 11
    1c60:	91 05       	cpc	r25, r1
    1c62:	09 f4       	brne	.+2      	; 0x1c66 <main+0x118>
    1c64:	57 c0       	rjmp	.+174    	; 0x1d14 <main+0x1c6>
    1c66:	0c f4       	brge	.+2      	; 0x1c6a <main+0x11c>
    1c68:	49 c0       	rjmp	.+146    	; 0x1cfc <main+0x1ae>
    1c6a:	87 3e       	cpi	r24, 0xE7	; 231
    1c6c:	93 40       	sbci	r25, 0x03	; 3
    1c6e:	09 f4       	brne	.+2      	; 0x1c72 <main+0x124>
    1c70:	08 c1       	rjmp	.+528    	; 0x1e82 <main+0x334>
    1c72:	4d c0       	rjmp	.+154    	; 0x1d0e <main+0x1c0>
				case EVT_ACTION:
					ServoControl( serCmd[1] );
    1c74:	e4 e7       	ldi	r30, 0x74	; 116
    1c76:	fc e0       	ldi	r31, 0x0C	; 12
    1c78:	80 81       	ld	r24, Z
    1c7a:	91 81       	ldd	r25, Z+1	; 0x01
    1c7c:	8b dc       	rcall	.-1770   	; 0x1594 <ServoControl>
//                    setSpeedTest( serCmd[1] );
					sendAck(1);
    1c7e:	81 e0       	ldi	r24, 0x01	; 1
    1c80:	90 e0       	ldi	r25, 0x00	; 0
    1c82:	c7 d8       	rcall	.-3698   	; 0xe12 <sendAck>
					break;
    1c84:	47 c0       	rjmp	.+142    	; 0x1d14 <main+0x1c6>
				case EVT_START_MOTION:
				    startMotion( serCmd[1], serCmd[2] );
    1c86:	e6 e7       	ldi	r30, 0x76	; 118
    1c88:	fc e0       	ldi	r31, 0x0C	; 12
    1c8a:	60 81       	ld	r22, Z
    1c8c:	71 81       	ldd	r23, Z+1	; 0x01
    1c8e:	e4 e7       	ldi	r30, 0x74	; 116
    1c90:	fc e0       	ldi	r31, 0x0C	; 12
    1c92:	80 81       	ld	r24, Z
    1c94:	91 81       	ldd	r25, Z+1	; 0x01
    1c96:	2e db       	rcall	.-2468   	; 0x12f4 <startMotion>
					PORTC = ~(1 << (LED_MAX - 2));
    1c98:	ff ed       	ldi	r31, 0xDF	; 223
    1c9a:	f8 b9       	out	0x08, r31	; 8
					sendAck(1);
    1c9c:	81 e0       	ldi	r24, 0x01	; 1
    1c9e:	90 e0       	ldi	r25, 0x00	; 0
    1ca0:	b8 d8       	rcall	.-3728   	; 0xe12 <sendAck>
					break;
    1ca2:	38 c0       	rjmp	.+112    	; 0x1d14 <main+0x1c6>
				case EVT_STOP_MOTION:
					stopMotion();
    1ca4:	b2 db       	rcall	.-2204   	; 0x140a <stopMotion>
					sendAck(1);
    1ca6:	81 e0       	ldi	r24, 0x01	; 1
    1ca8:	90 e0       	ldi	r25, 0x00	; 0
    1caa:	b3 d8       	rcall	.-3738   	; 0xe12 <sendAck>
					break;
    1cac:	33 c0       	rjmp	.+102    	; 0x1d14 <main+0x1c6>
				case EVT_FORCE_MOTION:
					forceMotion( serCmd[1], serCmd[2] );
    1cae:	e6 e7       	ldi	r30, 0x76	; 118
    1cb0:	fc e0       	ldi	r31, 0x0C	; 12
    1cb2:	60 81       	ld	r22, Z
    1cb4:	71 81       	ldd	r23, Z+1	; 0x01
    1cb6:	e4 e7       	ldi	r30, 0x74	; 116
    1cb8:	fc e0       	ldi	r31, 0x0C	; 12
    1cba:	80 81       	ld	r24, Z
    1cbc:	91 81       	ldd	r25, Z+1	; 0x01
    1cbe:	8e db       	rcall	.-2276   	; 0x13dc <forceMotion>
					break;
    1cc0:	29 c0       	rjmp	.+82     	; 0x1d14 <main+0x1c6>
				case EVT_GET_NOW_ANGLE:
					getAngle();
    1cc2:	40 d9       	rcall	.-3456   	; 0xf44 <getAngle>
					break;
    1cc4:	27 c0       	rjmp	.+78     	; 0x1d14 <main+0x1c6>
				case EVT_SET_ANGLE:
					setAngle();
    1cc6:	1e d9       	rcall	.-3524   	; 0xf04 <setAngle>
				case EVT_GET_ACT_ANGLE:
				    if( serCmd[1] >= ACT_MAX ){
    1cc8:	e4 e7       	ldi	r30, 0x74	; 116
    1cca:	fc e0       	ldi	r31, 0x0C	; 12
    1ccc:	80 81       	ld	r24, Z
    1cce:	91 81       	ldd	r25, Z+1	; 0x01
    1cd0:	82 33       	cpi	r24, 0x32	; 50
    1cd2:	91 05       	cpc	r25, r1
    1cd4:	24 f0       	brlt	.+8      	; 0x1cde <main+0x190>
					    sendAck(0);
    1cd6:	80 e0       	ldi	r24, 0x00	; 0
    1cd8:	90 e0       	ldi	r25, 0x00	; 0
    1cda:	9b d8       	rcall	.-3786   	; 0xe12 <sendAck>
    1cdc:	1b c0       	rjmp	.+54     	; 0x1d14 <main+0x1c6>
					}else{
						sendActAngle(serCmd[1]);
    1cde:	ad d9       	rcall	.-3238   	; 0x103a <sendActAngle>
    1ce0:	19 c0       	rjmp	.+50     	; 0x1d14 <main+0x1c6>
					}
					break;
				case EVT_GET_LOAD:
					getLoad();
    1ce2:	10 da       	rcall	.-3040   	; 0x1104 <getLoad>
//					printf( "%d\n", movingTime );
					break;
    1ce4:	17 c0       	rjmp	.+46     	; 0x1d14 <main+0x1c6>
				case EVT_GET_VOLTAGE:
					getVoltage();
    1ce6:	89 da       	rcall	.-2798   	; 0x11fa <getVoltage>
					break;
    1ce8:	15 c0       	rjmp	.+42     	; 0x1d14 <main+0x1c6>
				case EVT_TORQUE_DISABLE:
					dxl_write_byte( BROADCAST_ID, P_TORQUE_ENABLE, 0 );
    1cea:	40 e0       	ldi	r20, 0x00	; 0
    1cec:	50 e0       	ldi	r21, 0x00	; 0
    1cee:	68 e1       	ldi	r22, 0x18	; 24
    1cf0:	70 e0       	ldi	r23, 0x00	; 0
    1cf2:	8e ef       	ldi	r24, 0xFE	; 254
    1cf4:	90 e0       	ldi	r25, 0x00	; 0
    1cf6:	0e 94 33 02 	call	0x466	; 0x466 <dxl_write_byte>
					break;
    1cfa:	0c c0       	rjmp	.+24     	; 0x1d14 <main+0x1c6>
				case EVT_WATCH_DOG:
					watchDogCnt = 0;
    1cfc:	10 92 5a 0c 	sts	0x0C5A, r1
    1d00:	10 92 5b 0c 	sts	0x0C5B, r1
    1d04:	10 92 5c 0c 	sts	0x0C5C, r1
    1d08:	10 92 5d 0c 	sts	0x0C5D, r1
					break;
    1d0c:	03 c0       	rjmp	.+6      	; 0x1d14 <main+0x1c6>
//					printf( "finish\n");
					sendAck(999);
					isFinish = 1;
					break;
				default:
					sendAck(0);
    1d0e:	80 e0       	ldi	r24, 0x00	; 0
    1d10:	90 e0       	ldi	r25, 0x00	; 0
    1d12:	7f d8       	rcall	.-3842   	; 0xe12 <sendAck>
				}
				if( isFinish > 0 ){
					MotorControl( 0, 0 );
					break;
				}
				memset( readData, 0x00, SERIAL_BUFFER_SIZE );
    1d14:	fe 01       	movw	r30, r28
    1d16:	22 2d       	mov	r18, r2
    1d18:	11 92       	st	Z+, r1
    1d1a:	2a 95       	dec	r18
    1d1c:	e9 f7       	brne	.-6      	; 0x1d18 <main+0x1ca>
			}
		}
		memset( &serCmd[0], 0x00, sizeof(int) * SERIAL_BUFFER_SIZE );
    1d1e:	f2 01       	movw	r30, r4
    1d20:	23 2d       	mov	r18, r3
    1d22:	11 92       	st	Z+, r1
    1d24:	2a 95       	dec	r18
    1d26:	e9 f7       	brne	.-6      	; 0x1d22 <main+0x1d4>
		
		if (~PINA & SW_START ) {
    1d28:	01 99       	sbic	0x00, 1	; 0
    1d2a:	11 c0       	rjmp	.+34     	; 0x1d4e <main+0x200>
			if( iStart > 0 ){
    1d2c:	80 91 08 02 	lds	r24, 0x0208
    1d30:	90 91 09 02 	lds	r25, 0x0209
    1d34:	18 16       	cp	r1, r24
    1d36:	19 06       	cpc	r1, r25
    1d38:	3c f5       	brge	.+78     	; 0x1d88 <main+0x23a>
				iStart = 0;
    1d3a:	10 92 09 02 	sts	0x0209, r1
    1d3e:	10 92 08 02 	sts	0x0208, r1
				PORTC = LED_BAT|LED_TxD|LED_RxD|LED_AUX|LED_MANAGE|LED_PROGRAM|LED_PLAY;
    1d42:	8f e7       	ldi	r24, 0x7F	; 127
    1d44:	88 b9       	out	0x08, r24	; 8
				ServoControl( 0 );
    1d46:	80 e0       	ldi	r24, 0x00	; 0
    1d48:	90 e0       	ldi	r25, 0x00	; 0
    1d4a:	24 dc       	rcall	.-1976   	; 0x1594 <ServoControl>
    1d4c:	1d c0       	rjmp	.+58     	; 0x1d88 <main+0x23a>
			}
		}else{
			if( iStart == 0 ){
    1d4e:	80 91 08 02 	lds	r24, 0x0208
    1d52:	90 91 09 02 	lds	r25, 0x0209
    1d56:	89 2b       	or	r24, r25
    1d58:	39 f4       	brne	.+14     	; 0x1d68 <main+0x21a>
				PORTC &= ~LED_PLAY;
    1d5a:	46 98       	cbi	0x08, 6	; 8
				iStart = 1;
    1d5c:	81 e0       	ldi	r24, 0x01	; 1
    1d5e:	90 e0       	ldi	r25, 0x00	; 0
    1d60:	90 93 09 02 	sts	0x0209, r25
    1d64:	80 93 08 02 	sts	0x0208, r24
			}
			if( modeWait <= 0 ){
    1d68:	80 91 6c 0c 	lds	r24, 0x0C6C
    1d6c:	90 91 6d 0c 	lds	r25, 0x0C6D
    1d70:	18 16       	cp	r1, r24
    1d72:	19 06       	cpc	r1, r25
    1d74:	1c f0       	brlt	.+6      	; 0x1d7c <main+0x22e>
				setModeAction();
    1d76:	d9 da       	rcall	.-2638   	; 0x132a <setModeAction>
				move();
    1d78:	18 de       	rcall	.-976    	; 0x19aa <move>
    1d7a:	06 c0       	rjmp	.+12     	; 0x1d88 <main+0x23a>
			}else{
				modeWait -= MAIN_DELAY;
    1d7c:	88 5e       	subi	r24, 0xE8	; 232
    1d7e:	93 40       	sbci	r25, 0x03	; 3
    1d80:	90 93 6d 0c 	sts	0x0C6D, r25
    1d84:	80 93 6c 0c 	sts	0x0C6C, r24
			}
		}
		if (sensorValue[0] == 0 && sensorValueOld[0] != sensorValue[0]) {
    1d88:	f6 01       	movw	r30, r12
    1d8a:	80 81       	ld	r24, Z
    1d8c:	91 81       	ldd	r25, Z+1	; 0x01
    1d8e:	00 97       	sbiw	r24, 0x00	; 0
    1d90:	51 f4       	brne	.+20     	; 0x1da6 <main+0x258>
    1d92:	f5 01       	movw	r30, r10
    1d94:	80 81       	ld	r24, Z
    1d96:	91 81       	ldd	r25, Z+1	; 0x01
    1d98:	89 2b       	or	r24, r25
    1d9a:	81 f0       	breq	.+32     	; 0x1dbc <main+0x26e>
			printf( "### main() sensorValue[0] == 0\n");
    1d9c:	8a ec       	ldi	r24, 0xCA	; 202
    1d9e:	98 e0       	ldi	r25, 0x08	; 8
    1da0:	53 d3       	rcall	.+1702   	; 0x2448 <puts>
			PORTC &= ~LED_PROGRAM;
    1da2:	45 98       	cbi	0x08, 5	; 8
    1da4:	0b c0       	rjmp	.+22     	; 0x1dbc <main+0x26e>
		}else if (sensorValueOld[0] != sensorValue[0]){
    1da6:	f5 01       	movw	r30, r10
    1da8:	20 81       	ld	r18, Z
    1daa:	31 81       	ldd	r19, Z+1	; 0x01
    1dac:	82 17       	cp	r24, r18
    1dae:	93 07       	cpc	r25, r19
    1db0:	29 f0       	breq	.+10     	; 0x1dbc <main+0x26e>
			printf( "### main() sensorValue[0] == 1\n");
    1db2:	89 ee       	ldi	r24, 0xE9	; 233
    1db4:	98 e0       	ldi	r25, 0x08	; 8
    1db6:	48 d3       	rcall	.+1680   	; 0x2448 <puts>
			PORTC = LED_BAT|LED_TxD|LED_RxD|LED_AUX|LED_MANAGE|LED_PLAY;
    1db8:	8f e5       	ldi	r24, 0x5F	; 95
    1dba:	88 b9       	out	0x08, r24	; 8
		}
		
		if (sensorValue[1] == 0 && sensorValueOld[1] != sensorValue[1]) {
    1dbc:	f7 01       	movw	r30, r14
    1dbe:	80 81       	ld	r24, Z
    1dc0:	91 81       	ldd	r25, Z+1	; 0x01
    1dc2:	00 97       	sbiw	r24, 0x00	; 0
    1dc4:	51 f4       	brne	.+20     	; 0x1dda <main+0x28c>
    1dc6:	f4 01       	movw	r30, r8
    1dc8:	80 81       	ld	r24, Z
    1dca:	91 81       	ldd	r25, Z+1	; 0x01
    1dcc:	89 2b       	or	r24, r25
    1dce:	81 f0       	breq	.+32     	; 0x1df0 <main+0x2a2>
			printf( "### main() sensorValue[1] == 0\n");
    1dd0:	88 e0       	ldi	r24, 0x08	; 8
    1dd2:	99 e0       	ldi	r25, 0x09	; 9
    1dd4:	39 d3       	rcall	.+1650   	; 0x2448 <puts>
			PORTC &= ~LED_MANAGE;
    1dd6:	44 98       	cbi	0x08, 4	; 8
    1dd8:	0b c0       	rjmp	.+22     	; 0x1df0 <main+0x2a2>
		}else if (sensorValueOld[1] != sensorValue[1]){
    1dda:	f4 01       	movw	r30, r8
    1ddc:	20 81       	ld	r18, Z
    1dde:	31 81       	ldd	r19, Z+1	; 0x01
    1de0:	82 17       	cp	r24, r18
    1de2:	93 07       	cpc	r25, r19
    1de4:	29 f0       	breq	.+10     	; 0x1df0 <main+0x2a2>
			printf( "### main() sensorValue[1] == 1\n");
    1de6:	87 e2       	ldi	r24, 0x27	; 39
    1de8:	99 e0       	ldi	r25, 0x09	; 9
    1dea:	2e d3       	rcall	.+1628   	; 0x2448 <puts>
			PORTC = LED_BAT|LED_TxD|LED_RxD|LED_AUX|LED_PROGRAM|LED_PLAY;
    1dec:	8f e6       	ldi	r24, 0x6F	; 111
    1dee:	88 b9       	out	0x08, r24	; 8
		}

		if (sensorValue[2] == 0 && sensorValueOld[2] != sensorValue[2]) {
    1df0:	f8 01       	movw	r30, r16
    1df2:	80 81       	ld	r24, Z
    1df4:	91 81       	ldd	r25, Z+1	; 0x01
    1df6:	00 97       	sbiw	r24, 0x00	; 0
    1df8:	51 f4       	brne	.+20     	; 0x1e0e <main+0x2c0>
    1dfa:	f3 01       	movw	r30, r6
    1dfc:	80 81       	ld	r24, Z
    1dfe:	91 81       	ldd	r25, Z+1	; 0x01
    1e00:	89 2b       	or	r24, r25
    1e02:	81 f0       	breq	.+32     	; 0x1e24 <main+0x2d6>
			printf( "### main() sensorValue[2] == 0\n");
    1e04:	86 e4       	ldi	r24, 0x46	; 70
    1e06:	99 e0       	ldi	r25, 0x09	; 9
    1e08:	1f d3       	rcall	.+1598   	; 0x2448 <puts>
			PORTC &= ~LED_AUX;
    1e0a:	43 98       	cbi	0x08, 3	; 8
    1e0c:	0b c0       	rjmp	.+22     	; 0x1e24 <main+0x2d6>
		}else if (sensorValueOld[2] != sensorValue[2]){
    1e0e:	f3 01       	movw	r30, r6
    1e10:	20 81       	ld	r18, Z
    1e12:	31 81       	ldd	r19, Z+1	; 0x01
    1e14:	82 17       	cp	r24, r18
    1e16:	93 07       	cpc	r25, r19
    1e18:	29 f0       	breq	.+10     	; 0x1e24 <main+0x2d6>
			printf( "### main() sensorValue[2] == 1\n");
    1e1a:	85 e6       	ldi	r24, 0x65	; 101
    1e1c:	99 e0       	ldi	r25, 0x09	; 9
    1e1e:	14 d3       	rcall	.+1576   	; 0x2448 <puts>
			PORTC = LED_BAT|LED_TxD|LED_RxD|LED_MANAGE|LED_PROGRAM|LED_PLAY;
    1e20:	87 e7       	ldi	r24, 0x77	; 119
    1e22:	88 b9       	out	0x08, r24	; 8
    	}
	    sensorValueOld[0] = sensorValue[0];
    1e24:	f6 01       	movw	r30, r12
    1e26:	80 81       	ld	r24, Z
    1e28:	91 81       	ldd	r25, Z+1	; 0x01
    1e2a:	f5 01       	movw	r30, r10
    1e2c:	91 83       	std	Z+1, r25	; 0x01
    1e2e:	80 83       	st	Z, r24
		sensorValueOld[1] = sensorValue[1];
    1e30:	f7 01       	movw	r30, r14
    1e32:	80 81       	ld	r24, Z
    1e34:	91 81       	ldd	r25, Z+1	; 0x01
    1e36:	f4 01       	movw	r30, r8
    1e38:	91 83       	std	Z+1, r25	; 0x01
    1e3a:	80 83       	st	Z, r24
		sensorValueOld[2] = sensorValue[2];
    1e3c:	f8 01       	movw	r30, r16
    1e3e:	80 81       	ld	r24, Z
    1e40:	91 81       	ldd	r25, Z+1	; 0x01
    1e42:	f3 01       	movw	r30, r6
    1e44:	91 83       	std	Z+1, r25	; 0x01
    1e46:	80 83       	st	Z, r24
	#else
		//round up by default
		__ticks_dc = (uint32_t)(ceil(fabs(__tmp)));
	#endif

	__builtin_avr_delay_cycles(__ticks_dc);
    1e48:	ff e3       	ldi	r31, 0x3F	; 63
    1e4a:	2d e0       	ldi	r18, 0x0D	; 13
    1e4c:	83 e0       	ldi	r24, 0x03	; 3
    1e4e:	f1 50       	subi	r31, 0x01	; 1
    1e50:	20 40       	sbci	r18, 0x00	; 0
    1e52:	80 40       	sbci	r24, 0x00	; 0
    1e54:	e1 f7       	brne	.-8      	; 0x1e4e <main+0x300>
    1e56:	00 c0       	rjmp	.+0      	; 0x1e58 <main+0x30a>
    1e58:	00 00       	nop
		
		_delay_ms(MAIN_DELAY);
		watchDogCnt++;
    1e5a:	80 91 5a 0c 	lds	r24, 0x0C5A
    1e5e:	90 91 5b 0c 	lds	r25, 0x0C5B
    1e62:	a0 91 5c 0c 	lds	r26, 0x0C5C
    1e66:	b0 91 5d 0c 	lds	r27, 0x0C5D
    1e6a:	01 96       	adiw	r24, 0x01	; 1
    1e6c:	a1 1d       	adc	r26, r1
    1e6e:	b1 1d       	adc	r27, r1
    1e70:	80 93 5a 0c 	sts	0x0C5A, r24
    1e74:	90 93 5b 0c 	sts	0x0C5B, r25
    1e78:	a0 93 5c 0c 	sts	0x0C5C, r26
    1e7c:	b0 93 5d 0c 	sts	0x0C5D, r27
	}
    1e80:	b5 ce       	rjmp	.-662    	; 0x1bec <main+0x9e>
					break;
				case EVT_MOTION_EDIT:
					break;
				case 999:
//					printf( "finish\n");
					sendAck(999);
    1e82:	87 ee       	ldi	r24, 0xE7	; 231
    1e84:	93 e0       	ldi	r25, 0x03	; 3
    1e86:	0e 94 09 07 	call	0xe12	; 0xe12 <sendAck>
					break;
				default:
					sendAck(0);
				}
				if( isFinish > 0 ){
					MotorControl( 0, 0 );
    1e8a:	60 e0       	ldi	r22, 0x00	; 0
    1e8c:	70 e0       	ldi	r23, 0x00	; 0
    1e8e:	80 e0       	ldi	r24, 0x00	; 0
    1e90:	90 e0       	ldi	r25, 0x00	; 0
    1e92:	3e db       	rcall	.-2436   	; 0x1510 <MotorControl>
		sensorValueOld[2] = sensorValue[2];
		
		_delay_ms(MAIN_DELAY);
		watchDogCnt++;
	}
}
    1e94:	80 e0       	ldi	r24, 0x00	; 0
    1e96:	90 e0       	ldi	r25, 0x00	; 0
    1e98:	df 91       	pop	r29
    1e9a:	cf 91       	pop	r28
    1e9c:	1f 91       	pop	r17
    1e9e:	0f 91       	pop	r16
    1ea0:	ff 90       	pop	r15
    1ea2:	ef 90       	pop	r14
    1ea4:	df 90       	pop	r13
    1ea6:	cf 90       	pop	r12
    1ea8:	bf 90       	pop	r11
    1eaa:	af 90       	pop	r10
    1eac:	9f 90       	pop	r9
    1eae:	8f 90       	pop	r8
    1eb0:	7f 90       	pop	r7
    1eb2:	6f 90       	pop	r6
    1eb4:	5f 90       	pop	r5
    1eb6:	4f 90       	pop	r4
    1eb8:	3f 90       	pop	r3
    1eba:	2f 90       	pop	r2
    1ebc:	08 95       	ret

00001ebe <__divsf3>:
    1ebe:	0c d0       	rcall	.+24     	; 0x1ed8 <__divsf3x>
    1ec0:	eb c0       	rjmp	.+470    	; 0x2098 <__fp_round>
    1ec2:	e3 d0       	rcall	.+454    	; 0x208a <__fp_pscB>
    1ec4:	40 f0       	brcs	.+16     	; 0x1ed6 <__divsf3+0x18>
    1ec6:	da d0       	rcall	.+436    	; 0x207c <__fp_pscA>
    1ec8:	30 f0       	brcs	.+12     	; 0x1ed6 <__divsf3+0x18>
    1eca:	21 f4       	brne	.+8      	; 0x1ed4 <__divsf3+0x16>
    1ecc:	5f 3f       	cpi	r21, 0xFF	; 255
    1ece:	19 f0       	breq	.+6      	; 0x1ed6 <__divsf3+0x18>
    1ed0:	cc c0       	rjmp	.+408    	; 0x206a <__fp_inf>
    1ed2:	51 11       	cpse	r21, r1
    1ed4:	15 c1       	rjmp	.+554    	; 0x2100 <__fp_szero>
    1ed6:	cf c0       	rjmp	.+414    	; 0x2076 <__fp_nan>

00001ed8 <__divsf3x>:
    1ed8:	f0 d0       	rcall	.+480    	; 0x20ba <__fp_split3>
    1eda:	98 f3       	brcs	.-26     	; 0x1ec2 <__divsf3+0x4>

00001edc <__divsf3_pse>:
    1edc:	99 23       	and	r25, r25
    1ede:	c9 f3       	breq	.-14     	; 0x1ed2 <__divsf3+0x14>
    1ee0:	55 23       	and	r21, r21
    1ee2:	b1 f3       	breq	.-20     	; 0x1ed0 <__divsf3+0x12>
    1ee4:	95 1b       	sub	r25, r21
    1ee6:	55 0b       	sbc	r21, r21
    1ee8:	bb 27       	eor	r27, r27
    1eea:	aa 27       	eor	r26, r26
    1eec:	62 17       	cp	r22, r18
    1eee:	73 07       	cpc	r23, r19
    1ef0:	84 07       	cpc	r24, r20
    1ef2:	38 f0       	brcs	.+14     	; 0x1f02 <__divsf3_pse+0x26>
    1ef4:	9f 5f       	subi	r25, 0xFF	; 255
    1ef6:	5f 4f       	sbci	r21, 0xFF	; 255
    1ef8:	22 0f       	add	r18, r18
    1efa:	33 1f       	adc	r19, r19
    1efc:	44 1f       	adc	r20, r20
    1efe:	aa 1f       	adc	r26, r26
    1f00:	a9 f3       	breq	.-22     	; 0x1eec <__divsf3_pse+0x10>
    1f02:	33 d0       	rcall	.+102    	; 0x1f6a <__divsf3_pse+0x8e>
    1f04:	0e 2e       	mov	r0, r30
    1f06:	3a f0       	brmi	.+14     	; 0x1f16 <__divsf3_pse+0x3a>
    1f08:	e0 e8       	ldi	r30, 0x80	; 128
    1f0a:	30 d0       	rcall	.+96     	; 0x1f6c <__divsf3_pse+0x90>
    1f0c:	91 50       	subi	r25, 0x01	; 1
    1f0e:	50 40       	sbci	r21, 0x00	; 0
    1f10:	e6 95       	lsr	r30
    1f12:	00 1c       	adc	r0, r0
    1f14:	ca f7       	brpl	.-14     	; 0x1f08 <__divsf3_pse+0x2c>
    1f16:	29 d0       	rcall	.+82     	; 0x1f6a <__divsf3_pse+0x8e>
    1f18:	fe 2f       	mov	r31, r30
    1f1a:	27 d0       	rcall	.+78     	; 0x1f6a <__divsf3_pse+0x8e>
    1f1c:	66 0f       	add	r22, r22
    1f1e:	77 1f       	adc	r23, r23
    1f20:	88 1f       	adc	r24, r24
    1f22:	bb 1f       	adc	r27, r27
    1f24:	26 17       	cp	r18, r22
    1f26:	37 07       	cpc	r19, r23
    1f28:	48 07       	cpc	r20, r24
    1f2a:	ab 07       	cpc	r26, r27
    1f2c:	b0 e8       	ldi	r27, 0x80	; 128
    1f2e:	09 f0       	breq	.+2      	; 0x1f32 <__divsf3_pse+0x56>
    1f30:	bb 0b       	sbc	r27, r27
    1f32:	80 2d       	mov	r24, r0
    1f34:	bf 01       	movw	r22, r30
    1f36:	ff 27       	eor	r31, r31
    1f38:	93 58       	subi	r25, 0x83	; 131
    1f3a:	5f 4f       	sbci	r21, 0xFF	; 255
    1f3c:	2a f0       	brmi	.+10     	; 0x1f48 <__divsf3_pse+0x6c>
    1f3e:	9e 3f       	cpi	r25, 0xFE	; 254
    1f40:	51 05       	cpc	r21, r1
    1f42:	68 f0       	brcs	.+26     	; 0x1f5e <__divsf3_pse+0x82>
    1f44:	92 c0       	rjmp	.+292    	; 0x206a <__fp_inf>
    1f46:	dc c0       	rjmp	.+440    	; 0x2100 <__fp_szero>
    1f48:	5f 3f       	cpi	r21, 0xFF	; 255
    1f4a:	ec f3       	brlt	.-6      	; 0x1f46 <__divsf3_pse+0x6a>
    1f4c:	98 3e       	cpi	r25, 0xE8	; 232
    1f4e:	dc f3       	brlt	.-10     	; 0x1f46 <__divsf3_pse+0x6a>
    1f50:	86 95       	lsr	r24
    1f52:	77 95       	ror	r23
    1f54:	67 95       	ror	r22
    1f56:	b7 95       	ror	r27
    1f58:	f7 95       	ror	r31
    1f5a:	9f 5f       	subi	r25, 0xFF	; 255
    1f5c:	c9 f7       	brne	.-14     	; 0x1f50 <__divsf3_pse+0x74>
    1f5e:	88 0f       	add	r24, r24
    1f60:	91 1d       	adc	r25, r1
    1f62:	96 95       	lsr	r25
    1f64:	87 95       	ror	r24
    1f66:	97 f9       	bld	r25, 7
    1f68:	08 95       	ret
    1f6a:	e1 e0       	ldi	r30, 0x01	; 1
    1f6c:	66 0f       	add	r22, r22
    1f6e:	77 1f       	adc	r23, r23
    1f70:	88 1f       	adc	r24, r24
    1f72:	bb 1f       	adc	r27, r27
    1f74:	62 17       	cp	r22, r18
    1f76:	73 07       	cpc	r23, r19
    1f78:	84 07       	cpc	r24, r20
    1f7a:	ba 07       	cpc	r27, r26
    1f7c:	20 f0       	brcs	.+8      	; 0x1f86 <__divsf3_pse+0xaa>
    1f7e:	62 1b       	sub	r22, r18
    1f80:	73 0b       	sbc	r23, r19
    1f82:	84 0b       	sbc	r24, r20
    1f84:	ba 0b       	sbc	r27, r26
    1f86:	ee 1f       	adc	r30, r30
    1f88:	88 f7       	brcc	.-30     	; 0x1f6c <__divsf3_pse+0x90>
    1f8a:	e0 95       	com	r30
    1f8c:	08 95       	ret

00001f8e <__fixsfsi>:
    1f8e:	04 d0       	rcall	.+8      	; 0x1f98 <__fixunssfsi>
    1f90:	68 94       	set
    1f92:	b1 11       	cpse	r27, r1
    1f94:	b5 c0       	rjmp	.+362    	; 0x2100 <__fp_szero>
    1f96:	08 95       	ret

00001f98 <__fixunssfsi>:
    1f98:	98 d0       	rcall	.+304    	; 0x20ca <__fp_splitA>
    1f9a:	88 f0       	brcs	.+34     	; 0x1fbe <__fixunssfsi+0x26>
    1f9c:	9f 57       	subi	r25, 0x7F	; 127
    1f9e:	90 f0       	brcs	.+36     	; 0x1fc4 <__fixunssfsi+0x2c>
    1fa0:	b9 2f       	mov	r27, r25
    1fa2:	99 27       	eor	r25, r25
    1fa4:	b7 51       	subi	r27, 0x17	; 23
    1fa6:	a0 f0       	brcs	.+40     	; 0x1fd0 <__fixunssfsi+0x38>
    1fa8:	d1 f0       	breq	.+52     	; 0x1fde <__fixunssfsi+0x46>
    1faa:	66 0f       	add	r22, r22
    1fac:	77 1f       	adc	r23, r23
    1fae:	88 1f       	adc	r24, r24
    1fb0:	99 1f       	adc	r25, r25
    1fb2:	1a f0       	brmi	.+6      	; 0x1fba <__fixunssfsi+0x22>
    1fb4:	ba 95       	dec	r27
    1fb6:	c9 f7       	brne	.-14     	; 0x1faa <__fixunssfsi+0x12>
    1fb8:	12 c0       	rjmp	.+36     	; 0x1fde <__fixunssfsi+0x46>
    1fba:	b1 30       	cpi	r27, 0x01	; 1
    1fbc:	81 f0       	breq	.+32     	; 0x1fde <__fixunssfsi+0x46>
    1fbe:	9f d0       	rcall	.+318    	; 0x20fe <__fp_zero>
    1fc0:	b1 e0       	ldi	r27, 0x01	; 1
    1fc2:	08 95       	ret
    1fc4:	9c c0       	rjmp	.+312    	; 0x20fe <__fp_zero>
    1fc6:	67 2f       	mov	r22, r23
    1fc8:	78 2f       	mov	r23, r24
    1fca:	88 27       	eor	r24, r24
    1fcc:	b8 5f       	subi	r27, 0xF8	; 248
    1fce:	39 f0       	breq	.+14     	; 0x1fde <__fixunssfsi+0x46>
    1fd0:	b9 3f       	cpi	r27, 0xF9	; 249
    1fd2:	cc f3       	brlt	.-14     	; 0x1fc6 <__fixunssfsi+0x2e>
    1fd4:	86 95       	lsr	r24
    1fd6:	77 95       	ror	r23
    1fd8:	67 95       	ror	r22
    1fda:	b3 95       	inc	r27
    1fdc:	d9 f7       	brne	.-10     	; 0x1fd4 <__fixunssfsi+0x3c>
    1fde:	3e f4       	brtc	.+14     	; 0x1fee <__fixunssfsi+0x56>
    1fe0:	90 95       	com	r25
    1fe2:	80 95       	com	r24
    1fe4:	70 95       	com	r23
    1fe6:	61 95       	neg	r22
    1fe8:	7f 4f       	sbci	r23, 0xFF	; 255
    1fea:	8f 4f       	sbci	r24, 0xFF	; 255
    1fec:	9f 4f       	sbci	r25, 0xFF	; 255
    1fee:	08 95       	ret

00001ff0 <__floatunsisf>:
    1ff0:	e8 94       	clt
    1ff2:	09 c0       	rjmp	.+18     	; 0x2006 <__floatsisf+0x12>

00001ff4 <__floatsisf>:
    1ff4:	97 fb       	bst	r25, 7
    1ff6:	3e f4       	brtc	.+14     	; 0x2006 <__floatsisf+0x12>
    1ff8:	90 95       	com	r25
    1ffa:	80 95       	com	r24
    1ffc:	70 95       	com	r23
    1ffe:	61 95       	neg	r22
    2000:	7f 4f       	sbci	r23, 0xFF	; 255
    2002:	8f 4f       	sbci	r24, 0xFF	; 255
    2004:	9f 4f       	sbci	r25, 0xFF	; 255
    2006:	99 23       	and	r25, r25
    2008:	a9 f0       	breq	.+42     	; 0x2034 <__floatsisf+0x40>
    200a:	f9 2f       	mov	r31, r25
    200c:	96 e9       	ldi	r25, 0x96	; 150
    200e:	bb 27       	eor	r27, r27
    2010:	93 95       	inc	r25
    2012:	f6 95       	lsr	r31
    2014:	87 95       	ror	r24
    2016:	77 95       	ror	r23
    2018:	67 95       	ror	r22
    201a:	b7 95       	ror	r27
    201c:	f1 11       	cpse	r31, r1
    201e:	f8 cf       	rjmp	.-16     	; 0x2010 <__floatsisf+0x1c>
    2020:	fa f4       	brpl	.+62     	; 0x2060 <__floatsisf+0x6c>
    2022:	bb 0f       	add	r27, r27
    2024:	11 f4       	brne	.+4      	; 0x202a <__floatsisf+0x36>
    2026:	60 ff       	sbrs	r22, 0
    2028:	1b c0       	rjmp	.+54     	; 0x2060 <__floatsisf+0x6c>
    202a:	6f 5f       	subi	r22, 0xFF	; 255
    202c:	7f 4f       	sbci	r23, 0xFF	; 255
    202e:	8f 4f       	sbci	r24, 0xFF	; 255
    2030:	9f 4f       	sbci	r25, 0xFF	; 255
    2032:	16 c0       	rjmp	.+44     	; 0x2060 <__floatsisf+0x6c>
    2034:	88 23       	and	r24, r24
    2036:	11 f0       	breq	.+4      	; 0x203c <__floatsisf+0x48>
    2038:	96 e9       	ldi	r25, 0x96	; 150
    203a:	11 c0       	rjmp	.+34     	; 0x205e <__floatsisf+0x6a>
    203c:	77 23       	and	r23, r23
    203e:	21 f0       	breq	.+8      	; 0x2048 <__floatsisf+0x54>
    2040:	9e e8       	ldi	r25, 0x8E	; 142
    2042:	87 2f       	mov	r24, r23
    2044:	76 2f       	mov	r23, r22
    2046:	05 c0       	rjmp	.+10     	; 0x2052 <__floatsisf+0x5e>
    2048:	66 23       	and	r22, r22
    204a:	71 f0       	breq	.+28     	; 0x2068 <__floatsisf+0x74>
    204c:	96 e8       	ldi	r25, 0x86	; 134
    204e:	86 2f       	mov	r24, r22
    2050:	70 e0       	ldi	r23, 0x00	; 0
    2052:	60 e0       	ldi	r22, 0x00	; 0
    2054:	2a f0       	brmi	.+10     	; 0x2060 <__floatsisf+0x6c>
    2056:	9a 95       	dec	r25
    2058:	66 0f       	add	r22, r22
    205a:	77 1f       	adc	r23, r23
    205c:	88 1f       	adc	r24, r24
    205e:	da f7       	brpl	.-10     	; 0x2056 <__floatsisf+0x62>
    2060:	88 0f       	add	r24, r24
    2062:	96 95       	lsr	r25
    2064:	87 95       	ror	r24
    2066:	97 f9       	bld	r25, 7
    2068:	08 95       	ret

0000206a <__fp_inf>:
    206a:	97 f9       	bld	r25, 7
    206c:	9f 67       	ori	r25, 0x7F	; 127
    206e:	80 e8       	ldi	r24, 0x80	; 128
    2070:	70 e0       	ldi	r23, 0x00	; 0
    2072:	60 e0       	ldi	r22, 0x00	; 0
    2074:	08 95       	ret

00002076 <__fp_nan>:
    2076:	9f ef       	ldi	r25, 0xFF	; 255
    2078:	80 ec       	ldi	r24, 0xC0	; 192
    207a:	08 95       	ret

0000207c <__fp_pscA>:
    207c:	00 24       	eor	r0, r0
    207e:	0a 94       	dec	r0
    2080:	16 16       	cp	r1, r22
    2082:	17 06       	cpc	r1, r23
    2084:	18 06       	cpc	r1, r24
    2086:	09 06       	cpc	r0, r25
    2088:	08 95       	ret

0000208a <__fp_pscB>:
    208a:	00 24       	eor	r0, r0
    208c:	0a 94       	dec	r0
    208e:	12 16       	cp	r1, r18
    2090:	13 06       	cpc	r1, r19
    2092:	14 06       	cpc	r1, r20
    2094:	05 06       	cpc	r0, r21
    2096:	08 95       	ret

00002098 <__fp_round>:
    2098:	09 2e       	mov	r0, r25
    209a:	03 94       	inc	r0
    209c:	00 0c       	add	r0, r0
    209e:	11 f4       	brne	.+4      	; 0x20a4 <__fp_round+0xc>
    20a0:	88 23       	and	r24, r24
    20a2:	52 f0       	brmi	.+20     	; 0x20b8 <__fp_round+0x20>
    20a4:	bb 0f       	add	r27, r27
    20a6:	40 f4       	brcc	.+16     	; 0x20b8 <__fp_round+0x20>
    20a8:	bf 2b       	or	r27, r31
    20aa:	11 f4       	brne	.+4      	; 0x20b0 <__fp_round+0x18>
    20ac:	60 ff       	sbrs	r22, 0
    20ae:	04 c0       	rjmp	.+8      	; 0x20b8 <__fp_round+0x20>
    20b0:	6f 5f       	subi	r22, 0xFF	; 255
    20b2:	7f 4f       	sbci	r23, 0xFF	; 255
    20b4:	8f 4f       	sbci	r24, 0xFF	; 255
    20b6:	9f 4f       	sbci	r25, 0xFF	; 255
    20b8:	08 95       	ret

000020ba <__fp_split3>:
    20ba:	57 fd       	sbrc	r21, 7
    20bc:	90 58       	subi	r25, 0x80	; 128
    20be:	44 0f       	add	r20, r20
    20c0:	55 1f       	adc	r21, r21
    20c2:	59 f0       	breq	.+22     	; 0x20da <__fp_splitA+0x10>
    20c4:	5f 3f       	cpi	r21, 0xFF	; 255
    20c6:	71 f0       	breq	.+28     	; 0x20e4 <__fp_splitA+0x1a>
    20c8:	47 95       	ror	r20

000020ca <__fp_splitA>:
    20ca:	88 0f       	add	r24, r24
    20cc:	97 fb       	bst	r25, 7
    20ce:	99 1f       	adc	r25, r25
    20d0:	61 f0       	breq	.+24     	; 0x20ea <__fp_splitA+0x20>
    20d2:	9f 3f       	cpi	r25, 0xFF	; 255
    20d4:	79 f0       	breq	.+30     	; 0x20f4 <__fp_splitA+0x2a>
    20d6:	87 95       	ror	r24
    20d8:	08 95       	ret
    20da:	12 16       	cp	r1, r18
    20dc:	13 06       	cpc	r1, r19
    20de:	14 06       	cpc	r1, r20
    20e0:	55 1f       	adc	r21, r21
    20e2:	f2 cf       	rjmp	.-28     	; 0x20c8 <__fp_split3+0xe>
    20e4:	46 95       	lsr	r20
    20e6:	f1 df       	rcall	.-30     	; 0x20ca <__fp_splitA>
    20e8:	08 c0       	rjmp	.+16     	; 0x20fa <__fp_splitA+0x30>
    20ea:	16 16       	cp	r1, r22
    20ec:	17 06       	cpc	r1, r23
    20ee:	18 06       	cpc	r1, r24
    20f0:	99 1f       	adc	r25, r25
    20f2:	f1 cf       	rjmp	.-30     	; 0x20d6 <__fp_splitA+0xc>
    20f4:	86 95       	lsr	r24
    20f6:	71 05       	cpc	r23, r1
    20f8:	61 05       	cpc	r22, r1
    20fa:	08 94       	sec
    20fc:	08 95       	ret

000020fe <__fp_zero>:
    20fe:	e8 94       	clt

00002100 <__fp_szero>:
    2100:	bb 27       	eor	r27, r27
    2102:	66 27       	eor	r22, r22
    2104:	77 27       	eor	r23, r23
    2106:	cb 01       	movw	r24, r22
    2108:	97 f9       	bld	r25, 7
    210a:	08 95       	ret

0000210c <__mulsf3>:
    210c:	0b d0       	rcall	.+22     	; 0x2124 <__mulsf3x>
    210e:	c4 cf       	rjmp	.-120    	; 0x2098 <__fp_round>
    2110:	b5 df       	rcall	.-150    	; 0x207c <__fp_pscA>
    2112:	28 f0       	brcs	.+10     	; 0x211e <__mulsf3+0x12>
    2114:	ba df       	rcall	.-140    	; 0x208a <__fp_pscB>
    2116:	18 f0       	brcs	.+6      	; 0x211e <__mulsf3+0x12>
    2118:	95 23       	and	r25, r21
    211a:	09 f0       	breq	.+2      	; 0x211e <__mulsf3+0x12>
    211c:	a6 cf       	rjmp	.-180    	; 0x206a <__fp_inf>
    211e:	ab cf       	rjmp	.-170    	; 0x2076 <__fp_nan>
    2120:	11 24       	eor	r1, r1
    2122:	ee cf       	rjmp	.-36     	; 0x2100 <__fp_szero>

00002124 <__mulsf3x>:
    2124:	ca df       	rcall	.-108    	; 0x20ba <__fp_split3>
    2126:	a0 f3       	brcs	.-24     	; 0x2110 <__mulsf3+0x4>

00002128 <__mulsf3_pse>:
    2128:	95 9f       	mul	r25, r21
    212a:	d1 f3       	breq	.-12     	; 0x2120 <__mulsf3+0x14>
    212c:	95 0f       	add	r25, r21
    212e:	50 e0       	ldi	r21, 0x00	; 0
    2130:	55 1f       	adc	r21, r21
    2132:	62 9f       	mul	r22, r18
    2134:	f0 01       	movw	r30, r0
    2136:	72 9f       	mul	r23, r18
    2138:	bb 27       	eor	r27, r27
    213a:	f0 0d       	add	r31, r0
    213c:	b1 1d       	adc	r27, r1
    213e:	63 9f       	mul	r22, r19
    2140:	aa 27       	eor	r26, r26
    2142:	f0 0d       	add	r31, r0
    2144:	b1 1d       	adc	r27, r1
    2146:	aa 1f       	adc	r26, r26
    2148:	64 9f       	mul	r22, r20
    214a:	66 27       	eor	r22, r22
    214c:	b0 0d       	add	r27, r0
    214e:	a1 1d       	adc	r26, r1
    2150:	66 1f       	adc	r22, r22
    2152:	82 9f       	mul	r24, r18
    2154:	22 27       	eor	r18, r18
    2156:	b0 0d       	add	r27, r0
    2158:	a1 1d       	adc	r26, r1
    215a:	62 1f       	adc	r22, r18
    215c:	73 9f       	mul	r23, r19
    215e:	b0 0d       	add	r27, r0
    2160:	a1 1d       	adc	r26, r1
    2162:	62 1f       	adc	r22, r18
    2164:	83 9f       	mul	r24, r19
    2166:	a0 0d       	add	r26, r0
    2168:	61 1d       	adc	r22, r1
    216a:	22 1f       	adc	r18, r18
    216c:	74 9f       	mul	r23, r20
    216e:	33 27       	eor	r19, r19
    2170:	a0 0d       	add	r26, r0
    2172:	61 1d       	adc	r22, r1
    2174:	23 1f       	adc	r18, r19
    2176:	84 9f       	mul	r24, r20
    2178:	60 0d       	add	r22, r0
    217a:	21 1d       	adc	r18, r1
    217c:	82 2f       	mov	r24, r18
    217e:	76 2f       	mov	r23, r22
    2180:	6a 2f       	mov	r22, r26
    2182:	11 24       	eor	r1, r1
    2184:	9f 57       	subi	r25, 0x7F	; 127
    2186:	50 40       	sbci	r21, 0x00	; 0
    2188:	8a f0       	brmi	.+34     	; 0x21ac <__mulsf3_pse+0x84>
    218a:	e1 f0       	breq	.+56     	; 0x21c4 <__mulsf3_pse+0x9c>
    218c:	88 23       	and	r24, r24
    218e:	4a f0       	brmi	.+18     	; 0x21a2 <__mulsf3_pse+0x7a>
    2190:	ee 0f       	add	r30, r30
    2192:	ff 1f       	adc	r31, r31
    2194:	bb 1f       	adc	r27, r27
    2196:	66 1f       	adc	r22, r22
    2198:	77 1f       	adc	r23, r23
    219a:	88 1f       	adc	r24, r24
    219c:	91 50       	subi	r25, 0x01	; 1
    219e:	50 40       	sbci	r21, 0x00	; 0
    21a0:	a9 f7       	brne	.-22     	; 0x218c <__mulsf3_pse+0x64>
    21a2:	9e 3f       	cpi	r25, 0xFE	; 254
    21a4:	51 05       	cpc	r21, r1
    21a6:	70 f0       	brcs	.+28     	; 0x21c4 <__mulsf3_pse+0x9c>
    21a8:	60 cf       	rjmp	.-320    	; 0x206a <__fp_inf>
    21aa:	aa cf       	rjmp	.-172    	; 0x2100 <__fp_szero>
    21ac:	5f 3f       	cpi	r21, 0xFF	; 255
    21ae:	ec f3       	brlt	.-6      	; 0x21aa <__mulsf3_pse+0x82>
    21b0:	98 3e       	cpi	r25, 0xE8	; 232
    21b2:	dc f3       	brlt	.-10     	; 0x21aa <__mulsf3_pse+0x82>
    21b4:	86 95       	lsr	r24
    21b6:	77 95       	ror	r23
    21b8:	67 95       	ror	r22
    21ba:	b7 95       	ror	r27
    21bc:	f7 95       	ror	r31
    21be:	e7 95       	ror	r30
    21c0:	9f 5f       	subi	r25, 0xFF	; 255
    21c2:	c1 f7       	brne	.-16     	; 0x21b4 <__mulsf3_pse+0x8c>
    21c4:	fe 2b       	or	r31, r30
    21c6:	88 0f       	add	r24, r24
    21c8:	91 1d       	adc	r25, r1
    21ca:	96 95       	lsr	r25
    21cc:	87 95       	ror	r24
    21ce:	97 f9       	bld	r25, 7
    21d0:	08 95       	ret

000021d2 <__cmpsf2>:
    21d2:	03 d0       	rcall	.+6      	; 0x21da <__fp_cmp>
    21d4:	08 f4       	brcc	.+2      	; 0x21d8 <__cmpsf2+0x6>
    21d6:	81 e0       	ldi	r24, 0x01	; 1
    21d8:	08 95       	ret

000021da <__fp_cmp>:
    21da:	99 0f       	add	r25, r25
    21dc:	00 08       	sbc	r0, r0
    21de:	55 0f       	add	r21, r21
    21e0:	aa 0b       	sbc	r26, r26
    21e2:	e0 e8       	ldi	r30, 0x80	; 128
    21e4:	fe ef       	ldi	r31, 0xFE	; 254
    21e6:	16 16       	cp	r1, r22
    21e8:	17 06       	cpc	r1, r23
    21ea:	e8 07       	cpc	r30, r24
    21ec:	f9 07       	cpc	r31, r25
    21ee:	c0 f0       	brcs	.+48     	; 0x2220 <__stack+0x21>
    21f0:	12 16       	cp	r1, r18
    21f2:	13 06       	cpc	r1, r19
    21f4:	e4 07       	cpc	r30, r20
    21f6:	f5 07       	cpc	r31, r21
    21f8:	98 f0       	brcs	.+38     	; 0x2220 <__stack+0x21>
    21fa:	62 1b       	sub	r22, r18
    21fc:	73 0b       	sbc	r23, r19
    21fe:	84 0b       	sbc	r24, r20
    2200:	95 0b       	sbc	r25, r21
    2202:	39 f4       	brne	.+14     	; 0x2212 <__stack+0x13>
    2204:	0a 26       	eor	r0, r26
    2206:	61 f0       	breq	.+24     	; 0x2220 <__stack+0x21>
    2208:	23 2b       	or	r18, r19
    220a:	24 2b       	or	r18, r20
    220c:	25 2b       	or	r18, r21
    220e:	21 f4       	brne	.+8      	; 0x2218 <__stack+0x19>
    2210:	08 95       	ret
    2212:	0a 26       	eor	r0, r26
    2214:	09 f4       	brne	.+2      	; 0x2218 <__stack+0x19>
    2216:	a1 40       	sbci	r26, 0x01	; 1
    2218:	a6 95       	lsr	r26
    221a:	8f ef       	ldi	r24, 0xFF	; 255
    221c:	81 1d       	adc	r24, r1
    221e:	81 1d       	adc	r24, r1
    2220:	08 95       	ret

00002222 <__gesf2>:
    2222:	db df       	rcall	.-74     	; 0x21da <__fp_cmp>
    2224:	08 f4       	brcc	.+2      	; 0x2228 <__gesf2+0x6>
    2226:	8f ef       	ldi	r24, 0xFF	; 255
    2228:	08 95       	ret

0000222a <__divmodhi4>:
    222a:	97 fb       	bst	r25, 7
    222c:	07 2e       	mov	r0, r23
    222e:	16 f4       	brtc	.+4      	; 0x2234 <__divmodhi4+0xa>
    2230:	00 94       	com	r0
    2232:	06 d0       	rcall	.+12     	; 0x2240 <__divmodhi4_neg1>
    2234:	77 fd       	sbrc	r23, 7
    2236:	08 d0       	rcall	.+16     	; 0x2248 <__divmodhi4_neg2>
    2238:	0b d0       	rcall	.+22     	; 0x2250 <__udivmodhi4>
    223a:	07 fc       	sbrc	r0, 7
    223c:	05 d0       	rcall	.+10     	; 0x2248 <__divmodhi4_neg2>
    223e:	3e f4       	brtc	.+14     	; 0x224e <__divmodhi4_exit>

00002240 <__divmodhi4_neg1>:
    2240:	90 95       	com	r25
    2242:	81 95       	neg	r24
    2244:	9f 4f       	sbci	r25, 0xFF	; 255
    2246:	08 95       	ret

00002248 <__divmodhi4_neg2>:
    2248:	70 95       	com	r23
    224a:	61 95       	neg	r22
    224c:	7f 4f       	sbci	r23, 0xFF	; 255

0000224e <__divmodhi4_exit>:
    224e:	08 95       	ret

00002250 <__udivmodhi4>:
    2250:	aa 1b       	sub	r26, r26
    2252:	bb 1b       	sub	r27, r27
    2254:	51 e1       	ldi	r21, 0x11	; 17
    2256:	07 c0       	rjmp	.+14     	; 0x2266 <__udivmodhi4_ep>

00002258 <__udivmodhi4_loop>:
    2258:	aa 1f       	adc	r26, r26
    225a:	bb 1f       	adc	r27, r27
    225c:	a6 17       	cp	r26, r22
    225e:	b7 07       	cpc	r27, r23
    2260:	10 f0       	brcs	.+4      	; 0x2266 <__udivmodhi4_ep>
    2262:	a6 1b       	sub	r26, r22
    2264:	b7 0b       	sbc	r27, r23

00002266 <__udivmodhi4_ep>:
    2266:	88 1f       	adc	r24, r24
    2268:	99 1f       	adc	r25, r25
    226a:	5a 95       	dec	r21
    226c:	a9 f7       	brne	.-22     	; 0x2258 <__udivmodhi4_loop>
    226e:	80 95       	com	r24
    2270:	90 95       	com	r25
    2272:	bc 01       	movw	r22, r24
    2274:	cd 01       	movw	r24, r26
    2276:	08 95       	ret

00002278 <atoi>:
    2278:	fc 01       	movw	r30, r24
    227a:	88 27       	eor	r24, r24
    227c:	99 27       	eor	r25, r25
    227e:	e8 94       	clt
    2280:	21 91       	ld	r18, Z+
    2282:	20 32       	cpi	r18, 0x20	; 32
    2284:	e9 f3       	breq	.-6      	; 0x2280 <atoi+0x8>
    2286:	29 30       	cpi	r18, 0x09	; 9
    2288:	10 f0       	brcs	.+4      	; 0x228e <atoi+0x16>
    228a:	2e 30       	cpi	r18, 0x0E	; 14
    228c:	c8 f3       	brcs	.-14     	; 0x2280 <atoi+0x8>
    228e:	2b 32       	cpi	r18, 0x2B	; 43
    2290:	39 f0       	breq	.+14     	; 0x22a0 <atoi+0x28>
    2292:	2d 32       	cpi	r18, 0x2D	; 45
    2294:	31 f4       	brne	.+12     	; 0x22a2 <atoi+0x2a>
    2296:	68 94       	set
    2298:	03 c0       	rjmp	.+6      	; 0x22a0 <atoi+0x28>
    229a:	35 d0       	rcall	.+106    	; 0x2306 <__mulhi_const_10>
    229c:	82 0f       	add	r24, r18
    229e:	91 1d       	adc	r25, r1
    22a0:	21 91       	ld	r18, Z+
    22a2:	20 53       	subi	r18, 0x30	; 48
    22a4:	2a 30       	cpi	r18, 0x0A	; 10
    22a6:	c8 f3       	brcs	.-14     	; 0x229a <atoi+0x22>
    22a8:	1e f4       	brtc	.+6      	; 0x22b0 <atoi+0x38>
    22aa:	90 95       	com	r25
    22ac:	81 95       	neg	r24
    22ae:	9f 4f       	sbci	r25, 0xFF	; 255
    22b0:	08 95       	ret

000022b2 <strtok>:
    22b2:	44 ef       	ldi	r20, 0xF4	; 244
    22b4:	5b e0       	ldi	r21, 0x0B	; 11
    22b6:	00 c0       	rjmp	.+0      	; 0x22b8 <strtok_r>

000022b8 <strtok_r>:
    22b8:	fa 01       	movw	r30, r20
    22ba:	a1 91       	ld	r26, Z+
    22bc:	b0 81       	ld	r27, Z
    22be:	00 97       	sbiw	r24, 0x00	; 0
    22c0:	19 f4       	brne	.+6      	; 0x22c8 <strtok_r+0x10>
    22c2:	10 97       	sbiw	r26, 0x00	; 0
    22c4:	e1 f0       	breq	.+56     	; 0x22fe <strtok_r+0x46>
    22c6:	cd 01       	movw	r24, r26
    22c8:	dc 01       	movw	r26, r24
    22ca:	cd 01       	movw	r24, r26
    22cc:	0d 90       	ld	r0, X+
    22ce:	00 20       	and	r0, r0
    22d0:	11 f4       	brne	.+4      	; 0x22d6 <strtok_r+0x1e>
    22d2:	c0 01       	movw	r24, r0
    22d4:	13 c0       	rjmp	.+38     	; 0x22fc <strtok_r+0x44>
    22d6:	fb 01       	movw	r30, r22
    22d8:	21 91       	ld	r18, Z+
    22da:	22 23       	and	r18, r18
    22dc:	19 f0       	breq	.+6      	; 0x22e4 <strtok_r+0x2c>
    22de:	20 15       	cp	r18, r0
    22e0:	d9 f7       	brne	.-10     	; 0x22d8 <strtok_r+0x20>
    22e2:	f3 cf       	rjmp	.-26     	; 0x22ca <strtok_r+0x12>
    22e4:	fb 01       	movw	r30, r22
    22e6:	21 91       	ld	r18, Z+
    22e8:	20 15       	cp	r18, r0
    22ea:	19 f4       	brne	.+6      	; 0x22f2 <strtok_r+0x3a>
    22ec:	1e 92       	st	-X, r1
    22ee:	11 96       	adiw	r26, 0x01	; 1
    22f0:	06 c0       	rjmp	.+12     	; 0x22fe <strtok_r+0x46>
    22f2:	22 23       	and	r18, r18
    22f4:	c1 f7       	brne	.-16     	; 0x22e6 <strtok_r+0x2e>
    22f6:	0d 90       	ld	r0, X+
    22f8:	00 20       	and	r0, r0
    22fa:	a1 f7       	brne	.-24     	; 0x22e4 <strtok_r+0x2c>
    22fc:	d0 01       	movw	r26, r0
    22fe:	fa 01       	movw	r30, r20
    2300:	a1 93       	st	Z+, r26
    2302:	b0 83       	st	Z, r27
    2304:	08 95       	ret

00002306 <__mulhi_const_10>:
    2306:	7a e0       	ldi	r23, 0x0A	; 10
    2308:	97 9f       	mul	r25, r23
    230a:	90 2d       	mov	r25, r0
    230c:	87 9f       	mul	r24, r23
    230e:	80 2d       	mov	r24, r0
    2310:	91 0d       	add	r25, r1
    2312:	11 24       	eor	r1, r1
    2314:	08 95       	ret

00002316 <fdevopen>:
    2316:	0f 93       	push	r16
    2318:	1f 93       	push	r17
    231a:	cf 93       	push	r28
    231c:	df 93       	push	r29
    231e:	ec 01       	movw	r28, r24
    2320:	8b 01       	movw	r16, r22
    2322:	00 97       	sbiw	r24, 0x00	; 0
    2324:	31 f4       	brne	.+12     	; 0x2332 <fdevopen+0x1c>
    2326:	61 15       	cp	r22, r1
    2328:	71 05       	cpc	r23, r1
    232a:	19 f4       	brne	.+6      	; 0x2332 <fdevopen+0x1c>
    232c:	80 e0       	ldi	r24, 0x00	; 0
    232e:	90 e0       	ldi	r25, 0x00	; 0
    2330:	37 c0       	rjmp	.+110    	; 0x23a0 <fdevopen+0x8a>
    2332:	6e e0       	ldi	r22, 0x0E	; 14
    2334:	70 e0       	ldi	r23, 0x00	; 0
    2336:	81 e0       	ldi	r24, 0x01	; 1
    2338:	90 e0       	ldi	r25, 0x00	; 0
    233a:	a1 d2       	rcall	.+1346   	; 0x287e <calloc>
    233c:	fc 01       	movw	r30, r24
    233e:	00 97       	sbiw	r24, 0x00	; 0
    2340:	a9 f3       	breq	.-22     	; 0x232c <fdevopen+0x16>
    2342:	80 e8       	ldi	r24, 0x80	; 128
    2344:	83 83       	std	Z+3, r24	; 0x03
    2346:	01 15       	cp	r16, r1
    2348:	11 05       	cpc	r17, r1
    234a:	71 f0       	breq	.+28     	; 0x2368 <fdevopen+0x52>
    234c:	13 87       	std	Z+11, r17	; 0x0b
    234e:	02 87       	std	Z+10, r16	; 0x0a
    2350:	81 e8       	ldi	r24, 0x81	; 129
    2352:	83 83       	std	Z+3, r24	; 0x03
    2354:	80 91 3a 0d 	lds	r24, 0x0D3A
    2358:	90 91 3b 0d 	lds	r25, 0x0D3B
    235c:	89 2b       	or	r24, r25
    235e:	21 f4       	brne	.+8      	; 0x2368 <fdevopen+0x52>
    2360:	f0 93 3b 0d 	sts	0x0D3B, r31
    2364:	e0 93 3a 0d 	sts	0x0D3A, r30
    2368:	20 97       	sbiw	r28, 0x00	; 0
    236a:	c9 f0       	breq	.+50     	; 0x239e <fdevopen+0x88>
    236c:	d1 87       	std	Z+9, r29	; 0x09
    236e:	c0 87       	std	Z+8, r28	; 0x08
    2370:	83 81       	ldd	r24, Z+3	; 0x03
    2372:	82 60       	ori	r24, 0x02	; 2
    2374:	83 83       	std	Z+3, r24	; 0x03
    2376:	80 91 3c 0d 	lds	r24, 0x0D3C
    237a:	90 91 3d 0d 	lds	r25, 0x0D3D
    237e:	89 2b       	or	r24, r25
    2380:	71 f4       	brne	.+28     	; 0x239e <fdevopen+0x88>
    2382:	f0 93 3d 0d 	sts	0x0D3D, r31
    2386:	e0 93 3c 0d 	sts	0x0D3C, r30
    238a:	80 91 3e 0d 	lds	r24, 0x0D3E
    238e:	90 91 3f 0d 	lds	r25, 0x0D3F
    2392:	89 2b       	or	r24, r25
    2394:	21 f4       	brne	.+8      	; 0x239e <fdevopen+0x88>
    2396:	f0 93 3f 0d 	sts	0x0D3F, r31
    239a:	e0 93 3e 0d 	sts	0x0D3E, r30
    239e:	cf 01       	movw	r24, r30
    23a0:	df 91       	pop	r29
    23a2:	cf 91       	pop	r28
    23a4:	1f 91       	pop	r17
    23a6:	0f 91       	pop	r16
    23a8:	08 95       	ret

000023aa <fgetc>:
    23aa:	cf 93       	push	r28
    23ac:	df 93       	push	r29
    23ae:	ec 01       	movw	r28, r24
    23b0:	2b 81       	ldd	r18, Y+3	; 0x03
    23b2:	20 ff       	sbrs	r18, 0
    23b4:	33 c0       	rjmp	.+102    	; 0x241c <fgetc+0x72>
    23b6:	26 ff       	sbrs	r18, 6
    23b8:	0a c0       	rjmp	.+20     	; 0x23ce <fgetc+0x24>
    23ba:	2f 7b       	andi	r18, 0xBF	; 191
    23bc:	2b 83       	std	Y+3, r18	; 0x03
    23be:	8e 81       	ldd	r24, Y+6	; 0x06
    23c0:	9f 81       	ldd	r25, Y+7	; 0x07
    23c2:	01 96       	adiw	r24, 0x01	; 1
    23c4:	9f 83       	std	Y+7, r25	; 0x07
    23c6:	8e 83       	std	Y+6, r24	; 0x06
    23c8:	8a 81       	ldd	r24, Y+2	; 0x02
    23ca:	90 e0       	ldi	r25, 0x00	; 0
    23cc:	29 c0       	rjmp	.+82     	; 0x2420 <fgetc+0x76>
    23ce:	22 ff       	sbrs	r18, 2
    23d0:	0f c0       	rjmp	.+30     	; 0x23f0 <fgetc+0x46>
    23d2:	e8 81       	ld	r30, Y
    23d4:	f9 81       	ldd	r31, Y+1	; 0x01
    23d6:	80 81       	ld	r24, Z
    23d8:	99 27       	eor	r25, r25
    23da:	87 fd       	sbrc	r24, 7
    23dc:	90 95       	com	r25
    23de:	00 97       	sbiw	r24, 0x00	; 0
    23e0:	19 f4       	brne	.+6      	; 0x23e8 <fgetc+0x3e>
    23e2:	20 62       	ori	r18, 0x20	; 32
    23e4:	2b 83       	std	Y+3, r18	; 0x03
    23e6:	1a c0       	rjmp	.+52     	; 0x241c <fgetc+0x72>
    23e8:	31 96       	adiw	r30, 0x01	; 1
    23ea:	f9 83       	std	Y+1, r31	; 0x01
    23ec:	e8 83       	st	Y, r30
    23ee:	0e c0       	rjmp	.+28     	; 0x240c <fgetc+0x62>
    23f0:	ea 85       	ldd	r30, Y+10	; 0x0a
    23f2:	fb 85       	ldd	r31, Y+11	; 0x0b
    23f4:	19 95       	eicall
    23f6:	97 ff       	sbrs	r25, 7
    23f8:	09 c0       	rjmp	.+18     	; 0x240c <fgetc+0x62>
    23fa:	2b 81       	ldd	r18, Y+3	; 0x03
    23fc:	01 96       	adiw	r24, 0x01	; 1
    23fe:	11 f4       	brne	.+4      	; 0x2404 <fgetc+0x5a>
    2400:	80 e1       	ldi	r24, 0x10	; 16
    2402:	01 c0       	rjmp	.+2      	; 0x2406 <fgetc+0x5c>
    2404:	80 e2       	ldi	r24, 0x20	; 32
    2406:	82 2b       	or	r24, r18
    2408:	8b 83       	std	Y+3, r24	; 0x03
    240a:	08 c0       	rjmp	.+16     	; 0x241c <fgetc+0x72>
    240c:	2e 81       	ldd	r18, Y+6	; 0x06
    240e:	3f 81       	ldd	r19, Y+7	; 0x07
    2410:	2f 5f       	subi	r18, 0xFF	; 255
    2412:	3f 4f       	sbci	r19, 0xFF	; 255
    2414:	3f 83       	std	Y+7, r19	; 0x07
    2416:	2e 83       	std	Y+6, r18	; 0x06
    2418:	99 27       	eor	r25, r25
    241a:	02 c0       	rjmp	.+4      	; 0x2420 <fgetc+0x76>
    241c:	8f ef       	ldi	r24, 0xFF	; 255
    241e:	9f ef       	ldi	r25, 0xFF	; 255
    2420:	df 91       	pop	r29
    2422:	cf 91       	pop	r28
    2424:	08 95       	ret

00002426 <printf>:
    2426:	cf 93       	push	r28
    2428:	df 93       	push	r29
    242a:	cd b7       	in	r28, 0x3d	; 61
    242c:	de b7       	in	r29, 0x3e	; 62
    242e:	fe 01       	movw	r30, r28
    2430:	36 96       	adiw	r30, 0x06	; 6
    2432:	61 91       	ld	r22, Z+
    2434:	71 91       	ld	r23, Z+
    2436:	af 01       	movw	r20, r30
    2438:	80 91 3c 0d 	lds	r24, 0x0D3C
    243c:	90 91 3d 0d 	lds	r25, 0x0D3D
    2440:	30 d0       	rcall	.+96     	; 0x24a2 <vfprintf>
    2442:	df 91       	pop	r29
    2444:	cf 91       	pop	r28
    2446:	08 95       	ret

00002448 <puts>:
    2448:	0f 93       	push	r16
    244a:	1f 93       	push	r17
    244c:	cf 93       	push	r28
    244e:	df 93       	push	r29
    2450:	e0 91 3c 0d 	lds	r30, 0x0D3C
    2454:	f0 91 3d 0d 	lds	r31, 0x0D3D
    2458:	23 81       	ldd	r18, Z+3	; 0x03
    245a:	21 ff       	sbrs	r18, 1
    245c:	1b c0       	rjmp	.+54     	; 0x2494 <puts+0x4c>
    245e:	ec 01       	movw	r28, r24
    2460:	00 e0       	ldi	r16, 0x00	; 0
    2462:	10 e0       	ldi	r17, 0x00	; 0
    2464:	89 91       	ld	r24, Y+
    2466:	60 91 3c 0d 	lds	r22, 0x0D3C
    246a:	70 91 3d 0d 	lds	r23, 0x0D3D
    246e:	db 01       	movw	r26, r22
    2470:	18 96       	adiw	r26, 0x08	; 8
    2472:	ed 91       	ld	r30, X+
    2474:	fc 91       	ld	r31, X
    2476:	19 97       	sbiw	r26, 0x09	; 9
    2478:	88 23       	and	r24, r24
    247a:	31 f0       	breq	.+12     	; 0x2488 <puts+0x40>
    247c:	19 95       	eicall
    247e:	89 2b       	or	r24, r25
    2480:	89 f3       	breq	.-30     	; 0x2464 <puts+0x1c>
    2482:	0f ef       	ldi	r16, 0xFF	; 255
    2484:	1f ef       	ldi	r17, 0xFF	; 255
    2486:	ee cf       	rjmp	.-36     	; 0x2464 <puts+0x1c>
    2488:	8a e0       	ldi	r24, 0x0A	; 10
    248a:	19 95       	eicall
    248c:	89 2b       	or	r24, r25
    248e:	11 f4       	brne	.+4      	; 0x2494 <puts+0x4c>
    2490:	c8 01       	movw	r24, r16
    2492:	02 c0       	rjmp	.+4      	; 0x2498 <puts+0x50>
    2494:	8f ef       	ldi	r24, 0xFF	; 255
    2496:	9f ef       	ldi	r25, 0xFF	; 255
    2498:	df 91       	pop	r29
    249a:	cf 91       	pop	r28
    249c:	1f 91       	pop	r17
    249e:	0f 91       	pop	r16
    24a0:	08 95       	ret

000024a2 <vfprintf>:
    24a2:	2f 92       	push	r2
    24a4:	3f 92       	push	r3
    24a6:	4f 92       	push	r4
    24a8:	5f 92       	push	r5
    24aa:	6f 92       	push	r6
    24ac:	7f 92       	push	r7
    24ae:	8f 92       	push	r8
    24b0:	9f 92       	push	r9
    24b2:	af 92       	push	r10
    24b4:	bf 92       	push	r11
    24b6:	cf 92       	push	r12
    24b8:	df 92       	push	r13
    24ba:	ef 92       	push	r14
    24bc:	ff 92       	push	r15
    24be:	0f 93       	push	r16
    24c0:	1f 93       	push	r17
    24c2:	cf 93       	push	r28
    24c4:	df 93       	push	r29
    24c6:	cd b7       	in	r28, 0x3d	; 61
    24c8:	de b7       	in	r29, 0x3e	; 62
    24ca:	2c 97       	sbiw	r28, 0x0c	; 12
    24cc:	0f b6       	in	r0, 0x3f	; 63
    24ce:	f8 94       	cli
    24d0:	de bf       	out	0x3e, r29	; 62
    24d2:	0f be       	out	0x3f, r0	; 63
    24d4:	cd bf       	out	0x3d, r28	; 61
    24d6:	7c 01       	movw	r14, r24
    24d8:	6b 01       	movw	r12, r22
    24da:	8a 01       	movw	r16, r20
    24dc:	fc 01       	movw	r30, r24
    24de:	17 82       	std	Z+7, r1	; 0x07
    24e0:	16 82       	std	Z+6, r1	; 0x06
    24e2:	83 81       	ldd	r24, Z+3	; 0x03
    24e4:	81 ff       	sbrs	r24, 1
    24e6:	b0 c1       	rjmp	.+864    	; 0x2848 <vfprintf+0x3a6>
    24e8:	ce 01       	movw	r24, r28
    24ea:	01 96       	adiw	r24, 0x01	; 1
    24ec:	4c 01       	movw	r8, r24
    24ee:	f7 01       	movw	r30, r14
    24f0:	93 81       	ldd	r25, Z+3	; 0x03
    24f2:	f6 01       	movw	r30, r12
    24f4:	93 fd       	sbrc	r25, 3
    24f6:	85 91       	lpm	r24, Z+
    24f8:	93 ff       	sbrs	r25, 3
    24fa:	81 91       	ld	r24, Z+
    24fc:	6f 01       	movw	r12, r30
    24fe:	88 23       	and	r24, r24
    2500:	09 f4       	brne	.+2      	; 0x2504 <vfprintf+0x62>
    2502:	9e c1       	rjmp	.+828    	; 0x2840 <vfprintf+0x39e>
    2504:	85 32       	cpi	r24, 0x25	; 37
    2506:	39 f4       	brne	.+14     	; 0x2516 <vfprintf+0x74>
    2508:	93 fd       	sbrc	r25, 3
    250a:	85 91       	lpm	r24, Z+
    250c:	93 ff       	sbrs	r25, 3
    250e:	81 91       	ld	r24, Z+
    2510:	6f 01       	movw	r12, r30
    2512:	85 32       	cpi	r24, 0x25	; 37
    2514:	21 f4       	brne	.+8      	; 0x251e <vfprintf+0x7c>
    2516:	b7 01       	movw	r22, r14
    2518:	90 e0       	ldi	r25, 0x00	; 0
    251a:	0f d3       	rcall	.+1566   	; 0x2b3a <fputc>
    251c:	e8 cf       	rjmp	.-48     	; 0x24ee <vfprintf+0x4c>
    251e:	51 2c       	mov	r5, r1
    2520:	31 2c       	mov	r3, r1
    2522:	20 e0       	ldi	r18, 0x00	; 0
    2524:	20 32       	cpi	r18, 0x20	; 32
    2526:	a0 f4       	brcc	.+40     	; 0x2550 <vfprintf+0xae>
    2528:	8b 32       	cpi	r24, 0x2B	; 43
    252a:	69 f0       	breq	.+26     	; 0x2546 <vfprintf+0xa4>
    252c:	30 f4       	brcc	.+12     	; 0x253a <vfprintf+0x98>
    252e:	80 32       	cpi	r24, 0x20	; 32
    2530:	59 f0       	breq	.+22     	; 0x2548 <vfprintf+0xa6>
    2532:	83 32       	cpi	r24, 0x23	; 35
    2534:	69 f4       	brne	.+26     	; 0x2550 <vfprintf+0xae>
    2536:	20 61       	ori	r18, 0x10	; 16
    2538:	2c c0       	rjmp	.+88     	; 0x2592 <vfprintf+0xf0>
    253a:	8d 32       	cpi	r24, 0x2D	; 45
    253c:	39 f0       	breq	.+14     	; 0x254c <vfprintf+0xaa>
    253e:	80 33       	cpi	r24, 0x30	; 48
    2540:	39 f4       	brne	.+14     	; 0x2550 <vfprintf+0xae>
    2542:	21 60       	ori	r18, 0x01	; 1
    2544:	26 c0       	rjmp	.+76     	; 0x2592 <vfprintf+0xf0>
    2546:	22 60       	ori	r18, 0x02	; 2
    2548:	24 60       	ori	r18, 0x04	; 4
    254a:	23 c0       	rjmp	.+70     	; 0x2592 <vfprintf+0xf0>
    254c:	28 60       	ori	r18, 0x08	; 8
    254e:	21 c0       	rjmp	.+66     	; 0x2592 <vfprintf+0xf0>
    2550:	27 fd       	sbrc	r18, 7
    2552:	27 c0       	rjmp	.+78     	; 0x25a2 <vfprintf+0x100>
    2554:	30 ed       	ldi	r19, 0xD0	; 208
    2556:	38 0f       	add	r19, r24
    2558:	3a 30       	cpi	r19, 0x0A	; 10
    255a:	78 f4       	brcc	.+30     	; 0x257a <vfprintf+0xd8>
    255c:	26 ff       	sbrs	r18, 6
    255e:	06 c0       	rjmp	.+12     	; 0x256c <vfprintf+0xca>
    2560:	fa e0       	ldi	r31, 0x0A	; 10
    2562:	5f 9e       	mul	r5, r31
    2564:	30 0d       	add	r19, r0
    2566:	11 24       	eor	r1, r1
    2568:	53 2e       	mov	r5, r19
    256a:	13 c0       	rjmp	.+38     	; 0x2592 <vfprintf+0xf0>
    256c:	8a e0       	ldi	r24, 0x0A	; 10
    256e:	38 9e       	mul	r3, r24
    2570:	30 0d       	add	r19, r0
    2572:	11 24       	eor	r1, r1
    2574:	33 2e       	mov	r3, r19
    2576:	20 62       	ori	r18, 0x20	; 32
    2578:	0c c0       	rjmp	.+24     	; 0x2592 <vfprintf+0xf0>
    257a:	8e 32       	cpi	r24, 0x2E	; 46
    257c:	21 f4       	brne	.+8      	; 0x2586 <vfprintf+0xe4>
    257e:	26 fd       	sbrc	r18, 6
    2580:	5f c1       	rjmp	.+702    	; 0x2840 <vfprintf+0x39e>
    2582:	20 64       	ori	r18, 0x40	; 64
    2584:	06 c0       	rjmp	.+12     	; 0x2592 <vfprintf+0xf0>
    2586:	8c 36       	cpi	r24, 0x6C	; 108
    2588:	11 f4       	brne	.+4      	; 0x258e <vfprintf+0xec>
    258a:	20 68       	ori	r18, 0x80	; 128
    258c:	02 c0       	rjmp	.+4      	; 0x2592 <vfprintf+0xf0>
    258e:	88 36       	cpi	r24, 0x68	; 104
    2590:	41 f4       	brne	.+16     	; 0x25a2 <vfprintf+0x100>
    2592:	f6 01       	movw	r30, r12
    2594:	93 fd       	sbrc	r25, 3
    2596:	85 91       	lpm	r24, Z+
    2598:	93 ff       	sbrs	r25, 3
    259a:	81 91       	ld	r24, Z+
    259c:	6f 01       	movw	r12, r30
    259e:	81 11       	cpse	r24, r1
    25a0:	c1 cf       	rjmp	.-126    	; 0x2524 <vfprintf+0x82>
    25a2:	98 2f       	mov	r25, r24
    25a4:	9f 7d       	andi	r25, 0xDF	; 223
    25a6:	95 54       	subi	r25, 0x45	; 69
    25a8:	93 30       	cpi	r25, 0x03	; 3
    25aa:	28 f4       	brcc	.+10     	; 0x25b6 <vfprintf+0x114>
    25ac:	0c 5f       	subi	r16, 0xFC	; 252
    25ae:	1f 4f       	sbci	r17, 0xFF	; 255
    25b0:	ff e3       	ldi	r31, 0x3F	; 63
    25b2:	f9 83       	std	Y+1, r31	; 0x01
    25b4:	0d c0       	rjmp	.+26     	; 0x25d0 <vfprintf+0x12e>
    25b6:	83 36       	cpi	r24, 0x63	; 99
    25b8:	31 f0       	breq	.+12     	; 0x25c6 <vfprintf+0x124>
    25ba:	83 37       	cpi	r24, 0x73	; 115
    25bc:	71 f0       	breq	.+28     	; 0x25da <vfprintf+0x138>
    25be:	83 35       	cpi	r24, 0x53	; 83
    25c0:	09 f0       	breq	.+2      	; 0x25c4 <vfprintf+0x122>
    25c2:	57 c0       	rjmp	.+174    	; 0x2672 <vfprintf+0x1d0>
    25c4:	21 c0       	rjmp	.+66     	; 0x2608 <vfprintf+0x166>
    25c6:	f8 01       	movw	r30, r16
    25c8:	80 81       	ld	r24, Z
    25ca:	89 83       	std	Y+1, r24	; 0x01
    25cc:	0e 5f       	subi	r16, 0xFE	; 254
    25ce:	1f 4f       	sbci	r17, 0xFF	; 255
    25d0:	44 24       	eor	r4, r4
    25d2:	43 94       	inc	r4
    25d4:	51 2c       	mov	r5, r1
    25d6:	54 01       	movw	r10, r8
    25d8:	14 c0       	rjmp	.+40     	; 0x2602 <vfprintf+0x160>
    25da:	38 01       	movw	r6, r16
    25dc:	f2 e0       	ldi	r31, 0x02	; 2
    25de:	6f 0e       	add	r6, r31
    25e0:	71 1c       	adc	r7, r1
    25e2:	f8 01       	movw	r30, r16
    25e4:	a0 80       	ld	r10, Z
    25e6:	b1 80       	ldd	r11, Z+1	; 0x01
    25e8:	26 ff       	sbrs	r18, 6
    25ea:	03 c0       	rjmp	.+6      	; 0x25f2 <vfprintf+0x150>
    25ec:	65 2d       	mov	r22, r5
    25ee:	70 e0       	ldi	r23, 0x00	; 0
    25f0:	02 c0       	rjmp	.+4      	; 0x25f6 <vfprintf+0x154>
    25f2:	6f ef       	ldi	r22, 0xFF	; 255
    25f4:	7f ef       	ldi	r23, 0xFF	; 255
    25f6:	c5 01       	movw	r24, r10
    25f8:	2c 87       	std	Y+12, r18	; 0x0c
    25fa:	94 d2       	rcall	.+1320   	; 0x2b24 <strnlen>
    25fc:	2c 01       	movw	r4, r24
    25fe:	83 01       	movw	r16, r6
    2600:	2c 85       	ldd	r18, Y+12	; 0x0c
    2602:	2f 77       	andi	r18, 0x7F	; 127
    2604:	22 2e       	mov	r2, r18
    2606:	16 c0       	rjmp	.+44     	; 0x2634 <vfprintf+0x192>
    2608:	38 01       	movw	r6, r16
    260a:	f2 e0       	ldi	r31, 0x02	; 2
    260c:	6f 0e       	add	r6, r31
    260e:	71 1c       	adc	r7, r1
    2610:	f8 01       	movw	r30, r16
    2612:	a0 80       	ld	r10, Z
    2614:	b1 80       	ldd	r11, Z+1	; 0x01
    2616:	26 ff       	sbrs	r18, 6
    2618:	03 c0       	rjmp	.+6      	; 0x2620 <vfprintf+0x17e>
    261a:	65 2d       	mov	r22, r5
    261c:	70 e0       	ldi	r23, 0x00	; 0
    261e:	02 c0       	rjmp	.+4      	; 0x2624 <vfprintf+0x182>
    2620:	6f ef       	ldi	r22, 0xFF	; 255
    2622:	7f ef       	ldi	r23, 0xFF	; 255
    2624:	c5 01       	movw	r24, r10
    2626:	2c 87       	std	Y+12, r18	; 0x0c
    2628:	6b d2       	rcall	.+1238   	; 0x2b00 <strnlen_P>
    262a:	2c 01       	movw	r4, r24
    262c:	2c 85       	ldd	r18, Y+12	; 0x0c
    262e:	20 68       	ori	r18, 0x80	; 128
    2630:	22 2e       	mov	r2, r18
    2632:	83 01       	movw	r16, r6
    2634:	23 fc       	sbrc	r2, 3
    2636:	19 c0       	rjmp	.+50     	; 0x266a <vfprintf+0x1c8>
    2638:	83 2d       	mov	r24, r3
    263a:	90 e0       	ldi	r25, 0x00	; 0
    263c:	48 16       	cp	r4, r24
    263e:	59 06       	cpc	r5, r25
    2640:	a0 f4       	brcc	.+40     	; 0x266a <vfprintf+0x1c8>
    2642:	b7 01       	movw	r22, r14
    2644:	80 e2       	ldi	r24, 0x20	; 32
    2646:	90 e0       	ldi	r25, 0x00	; 0
    2648:	78 d2       	rcall	.+1264   	; 0x2b3a <fputc>
    264a:	3a 94       	dec	r3
    264c:	f5 cf       	rjmp	.-22     	; 0x2638 <vfprintf+0x196>
    264e:	f5 01       	movw	r30, r10
    2650:	27 fc       	sbrc	r2, 7
    2652:	85 91       	lpm	r24, Z+
    2654:	27 fe       	sbrs	r2, 7
    2656:	81 91       	ld	r24, Z+
    2658:	5f 01       	movw	r10, r30
    265a:	b7 01       	movw	r22, r14
    265c:	90 e0       	ldi	r25, 0x00	; 0
    265e:	6d d2       	rcall	.+1242   	; 0x2b3a <fputc>
    2660:	31 10       	cpse	r3, r1
    2662:	3a 94       	dec	r3
    2664:	f1 e0       	ldi	r31, 0x01	; 1
    2666:	4f 1a       	sub	r4, r31
    2668:	51 08       	sbc	r5, r1
    266a:	41 14       	cp	r4, r1
    266c:	51 04       	cpc	r5, r1
    266e:	79 f7       	brne	.-34     	; 0x264e <vfprintf+0x1ac>
    2670:	de c0       	rjmp	.+444    	; 0x282e <vfprintf+0x38c>
    2672:	84 36       	cpi	r24, 0x64	; 100
    2674:	11 f0       	breq	.+4      	; 0x267a <vfprintf+0x1d8>
    2676:	89 36       	cpi	r24, 0x69	; 105
    2678:	31 f5       	brne	.+76     	; 0x26c6 <vfprintf+0x224>
    267a:	f8 01       	movw	r30, r16
    267c:	27 ff       	sbrs	r18, 7
    267e:	07 c0       	rjmp	.+14     	; 0x268e <vfprintf+0x1ec>
    2680:	60 81       	ld	r22, Z
    2682:	71 81       	ldd	r23, Z+1	; 0x01
    2684:	82 81       	ldd	r24, Z+2	; 0x02
    2686:	93 81       	ldd	r25, Z+3	; 0x03
    2688:	0c 5f       	subi	r16, 0xFC	; 252
    268a:	1f 4f       	sbci	r17, 0xFF	; 255
    268c:	08 c0       	rjmp	.+16     	; 0x269e <vfprintf+0x1fc>
    268e:	60 81       	ld	r22, Z
    2690:	71 81       	ldd	r23, Z+1	; 0x01
    2692:	88 27       	eor	r24, r24
    2694:	77 fd       	sbrc	r23, 7
    2696:	80 95       	com	r24
    2698:	98 2f       	mov	r25, r24
    269a:	0e 5f       	subi	r16, 0xFE	; 254
    269c:	1f 4f       	sbci	r17, 0xFF	; 255
    269e:	2f 76       	andi	r18, 0x6F	; 111
    26a0:	b2 2e       	mov	r11, r18
    26a2:	97 ff       	sbrs	r25, 7
    26a4:	09 c0       	rjmp	.+18     	; 0x26b8 <vfprintf+0x216>
    26a6:	90 95       	com	r25
    26a8:	80 95       	com	r24
    26aa:	70 95       	com	r23
    26ac:	61 95       	neg	r22
    26ae:	7f 4f       	sbci	r23, 0xFF	; 255
    26b0:	8f 4f       	sbci	r24, 0xFF	; 255
    26b2:	9f 4f       	sbci	r25, 0xFF	; 255
    26b4:	20 68       	ori	r18, 0x80	; 128
    26b6:	b2 2e       	mov	r11, r18
    26b8:	2a e0       	ldi	r18, 0x0A	; 10
    26ba:	30 e0       	ldi	r19, 0x00	; 0
    26bc:	a4 01       	movw	r20, r8
    26be:	6f d2       	rcall	.+1246   	; 0x2b9e <__ultoa_invert>
    26c0:	a8 2e       	mov	r10, r24
    26c2:	a8 18       	sub	r10, r8
    26c4:	43 c0       	rjmp	.+134    	; 0x274c <vfprintf+0x2aa>
    26c6:	85 37       	cpi	r24, 0x75	; 117
    26c8:	29 f4       	brne	.+10     	; 0x26d4 <vfprintf+0x232>
    26ca:	2f 7e       	andi	r18, 0xEF	; 239
    26cc:	b2 2e       	mov	r11, r18
    26ce:	2a e0       	ldi	r18, 0x0A	; 10
    26d0:	30 e0       	ldi	r19, 0x00	; 0
    26d2:	25 c0       	rjmp	.+74     	; 0x271e <vfprintf+0x27c>
    26d4:	f2 2f       	mov	r31, r18
    26d6:	f9 7f       	andi	r31, 0xF9	; 249
    26d8:	bf 2e       	mov	r11, r31
    26da:	8f 36       	cpi	r24, 0x6F	; 111
    26dc:	c1 f0       	breq	.+48     	; 0x270e <vfprintf+0x26c>
    26de:	18 f4       	brcc	.+6      	; 0x26e6 <vfprintf+0x244>
    26e0:	88 35       	cpi	r24, 0x58	; 88
    26e2:	79 f0       	breq	.+30     	; 0x2702 <vfprintf+0x260>
    26e4:	ad c0       	rjmp	.+346    	; 0x2840 <vfprintf+0x39e>
    26e6:	80 37       	cpi	r24, 0x70	; 112
    26e8:	19 f0       	breq	.+6      	; 0x26f0 <vfprintf+0x24e>
    26ea:	88 37       	cpi	r24, 0x78	; 120
    26ec:	21 f0       	breq	.+8      	; 0x26f6 <vfprintf+0x254>
    26ee:	a8 c0       	rjmp	.+336    	; 0x2840 <vfprintf+0x39e>
    26f0:	2f 2f       	mov	r18, r31
    26f2:	20 61       	ori	r18, 0x10	; 16
    26f4:	b2 2e       	mov	r11, r18
    26f6:	b4 fe       	sbrs	r11, 4
    26f8:	0d c0       	rjmp	.+26     	; 0x2714 <vfprintf+0x272>
    26fa:	8b 2d       	mov	r24, r11
    26fc:	84 60       	ori	r24, 0x04	; 4
    26fe:	b8 2e       	mov	r11, r24
    2700:	09 c0       	rjmp	.+18     	; 0x2714 <vfprintf+0x272>
    2702:	24 ff       	sbrs	r18, 4
    2704:	0a c0       	rjmp	.+20     	; 0x271a <vfprintf+0x278>
    2706:	9f 2f       	mov	r25, r31
    2708:	96 60       	ori	r25, 0x06	; 6
    270a:	b9 2e       	mov	r11, r25
    270c:	06 c0       	rjmp	.+12     	; 0x271a <vfprintf+0x278>
    270e:	28 e0       	ldi	r18, 0x08	; 8
    2710:	30 e0       	ldi	r19, 0x00	; 0
    2712:	05 c0       	rjmp	.+10     	; 0x271e <vfprintf+0x27c>
    2714:	20 e1       	ldi	r18, 0x10	; 16
    2716:	30 e0       	ldi	r19, 0x00	; 0
    2718:	02 c0       	rjmp	.+4      	; 0x271e <vfprintf+0x27c>
    271a:	20 e1       	ldi	r18, 0x10	; 16
    271c:	32 e0       	ldi	r19, 0x02	; 2
    271e:	f8 01       	movw	r30, r16
    2720:	b7 fe       	sbrs	r11, 7
    2722:	07 c0       	rjmp	.+14     	; 0x2732 <vfprintf+0x290>
    2724:	60 81       	ld	r22, Z
    2726:	71 81       	ldd	r23, Z+1	; 0x01
    2728:	82 81       	ldd	r24, Z+2	; 0x02
    272a:	93 81       	ldd	r25, Z+3	; 0x03
    272c:	0c 5f       	subi	r16, 0xFC	; 252
    272e:	1f 4f       	sbci	r17, 0xFF	; 255
    2730:	06 c0       	rjmp	.+12     	; 0x273e <vfprintf+0x29c>
    2732:	60 81       	ld	r22, Z
    2734:	71 81       	ldd	r23, Z+1	; 0x01
    2736:	80 e0       	ldi	r24, 0x00	; 0
    2738:	90 e0       	ldi	r25, 0x00	; 0
    273a:	0e 5f       	subi	r16, 0xFE	; 254
    273c:	1f 4f       	sbci	r17, 0xFF	; 255
    273e:	a4 01       	movw	r20, r8
    2740:	2e d2       	rcall	.+1116   	; 0x2b9e <__ultoa_invert>
    2742:	a8 2e       	mov	r10, r24
    2744:	a8 18       	sub	r10, r8
    2746:	fb 2d       	mov	r31, r11
    2748:	ff 77       	andi	r31, 0x7F	; 127
    274a:	bf 2e       	mov	r11, r31
    274c:	b6 fe       	sbrs	r11, 6
    274e:	0b c0       	rjmp	.+22     	; 0x2766 <vfprintf+0x2c4>
    2750:	2b 2d       	mov	r18, r11
    2752:	2e 7f       	andi	r18, 0xFE	; 254
    2754:	a5 14       	cp	r10, r5
    2756:	50 f4       	brcc	.+20     	; 0x276c <vfprintf+0x2ca>
    2758:	b4 fe       	sbrs	r11, 4
    275a:	0a c0       	rjmp	.+20     	; 0x2770 <vfprintf+0x2ce>
    275c:	b2 fc       	sbrc	r11, 2
    275e:	08 c0       	rjmp	.+16     	; 0x2770 <vfprintf+0x2ce>
    2760:	2b 2d       	mov	r18, r11
    2762:	2e 7e       	andi	r18, 0xEE	; 238
    2764:	05 c0       	rjmp	.+10     	; 0x2770 <vfprintf+0x2ce>
    2766:	7a 2c       	mov	r7, r10
    2768:	2b 2d       	mov	r18, r11
    276a:	03 c0       	rjmp	.+6      	; 0x2772 <vfprintf+0x2d0>
    276c:	7a 2c       	mov	r7, r10
    276e:	01 c0       	rjmp	.+2      	; 0x2772 <vfprintf+0x2d0>
    2770:	75 2c       	mov	r7, r5
    2772:	24 ff       	sbrs	r18, 4
    2774:	0d c0       	rjmp	.+26     	; 0x2790 <vfprintf+0x2ee>
    2776:	fe 01       	movw	r30, r28
    2778:	ea 0d       	add	r30, r10
    277a:	f1 1d       	adc	r31, r1
    277c:	80 81       	ld	r24, Z
    277e:	80 33       	cpi	r24, 0x30	; 48
    2780:	11 f4       	brne	.+4      	; 0x2786 <vfprintf+0x2e4>
    2782:	29 7e       	andi	r18, 0xE9	; 233
    2784:	09 c0       	rjmp	.+18     	; 0x2798 <vfprintf+0x2f6>
    2786:	22 ff       	sbrs	r18, 2
    2788:	06 c0       	rjmp	.+12     	; 0x2796 <vfprintf+0x2f4>
    278a:	73 94       	inc	r7
    278c:	73 94       	inc	r7
    278e:	04 c0       	rjmp	.+8      	; 0x2798 <vfprintf+0x2f6>
    2790:	82 2f       	mov	r24, r18
    2792:	86 78       	andi	r24, 0x86	; 134
    2794:	09 f0       	breq	.+2      	; 0x2798 <vfprintf+0x2f6>
    2796:	73 94       	inc	r7
    2798:	23 fd       	sbrc	r18, 3
    279a:	12 c0       	rjmp	.+36     	; 0x27c0 <vfprintf+0x31e>
    279c:	20 ff       	sbrs	r18, 0
    279e:	06 c0       	rjmp	.+12     	; 0x27ac <vfprintf+0x30a>
    27a0:	5a 2c       	mov	r5, r10
    27a2:	73 14       	cp	r7, r3
    27a4:	18 f4       	brcc	.+6      	; 0x27ac <vfprintf+0x30a>
    27a6:	53 0c       	add	r5, r3
    27a8:	57 18       	sub	r5, r7
    27aa:	73 2c       	mov	r7, r3
    27ac:	73 14       	cp	r7, r3
    27ae:	60 f4       	brcc	.+24     	; 0x27c8 <vfprintf+0x326>
    27b0:	b7 01       	movw	r22, r14
    27b2:	80 e2       	ldi	r24, 0x20	; 32
    27b4:	90 e0       	ldi	r25, 0x00	; 0
    27b6:	2c 87       	std	Y+12, r18	; 0x0c
    27b8:	c0 d1       	rcall	.+896    	; 0x2b3a <fputc>
    27ba:	73 94       	inc	r7
    27bc:	2c 85       	ldd	r18, Y+12	; 0x0c
    27be:	f6 cf       	rjmp	.-20     	; 0x27ac <vfprintf+0x30a>
    27c0:	73 14       	cp	r7, r3
    27c2:	10 f4       	brcc	.+4      	; 0x27c8 <vfprintf+0x326>
    27c4:	37 18       	sub	r3, r7
    27c6:	01 c0       	rjmp	.+2      	; 0x27ca <vfprintf+0x328>
    27c8:	31 2c       	mov	r3, r1
    27ca:	24 ff       	sbrs	r18, 4
    27cc:	11 c0       	rjmp	.+34     	; 0x27f0 <vfprintf+0x34e>
    27ce:	b7 01       	movw	r22, r14
    27d0:	80 e3       	ldi	r24, 0x30	; 48
    27d2:	90 e0       	ldi	r25, 0x00	; 0
    27d4:	2c 87       	std	Y+12, r18	; 0x0c
    27d6:	b1 d1       	rcall	.+866    	; 0x2b3a <fputc>
    27d8:	2c 85       	ldd	r18, Y+12	; 0x0c
    27da:	22 ff       	sbrs	r18, 2
    27dc:	16 c0       	rjmp	.+44     	; 0x280a <vfprintf+0x368>
    27de:	21 ff       	sbrs	r18, 1
    27e0:	03 c0       	rjmp	.+6      	; 0x27e8 <vfprintf+0x346>
    27e2:	88 e5       	ldi	r24, 0x58	; 88
    27e4:	90 e0       	ldi	r25, 0x00	; 0
    27e6:	02 c0       	rjmp	.+4      	; 0x27ec <vfprintf+0x34a>
    27e8:	88 e7       	ldi	r24, 0x78	; 120
    27ea:	90 e0       	ldi	r25, 0x00	; 0
    27ec:	b7 01       	movw	r22, r14
    27ee:	0c c0       	rjmp	.+24     	; 0x2808 <vfprintf+0x366>
    27f0:	82 2f       	mov	r24, r18
    27f2:	86 78       	andi	r24, 0x86	; 134
    27f4:	51 f0       	breq	.+20     	; 0x280a <vfprintf+0x368>
    27f6:	21 fd       	sbrc	r18, 1
    27f8:	02 c0       	rjmp	.+4      	; 0x27fe <vfprintf+0x35c>
    27fa:	80 e2       	ldi	r24, 0x20	; 32
    27fc:	01 c0       	rjmp	.+2      	; 0x2800 <vfprintf+0x35e>
    27fe:	8b e2       	ldi	r24, 0x2B	; 43
    2800:	27 fd       	sbrc	r18, 7
    2802:	8d e2       	ldi	r24, 0x2D	; 45
    2804:	b7 01       	movw	r22, r14
    2806:	90 e0       	ldi	r25, 0x00	; 0
    2808:	98 d1       	rcall	.+816    	; 0x2b3a <fputc>
    280a:	a5 14       	cp	r10, r5
    280c:	30 f4       	brcc	.+12     	; 0x281a <vfprintf+0x378>
    280e:	b7 01       	movw	r22, r14
    2810:	80 e3       	ldi	r24, 0x30	; 48
    2812:	90 e0       	ldi	r25, 0x00	; 0
    2814:	92 d1       	rcall	.+804    	; 0x2b3a <fputc>
    2816:	5a 94       	dec	r5
    2818:	f8 cf       	rjmp	.-16     	; 0x280a <vfprintf+0x368>
    281a:	aa 94       	dec	r10
    281c:	f4 01       	movw	r30, r8
    281e:	ea 0d       	add	r30, r10
    2820:	f1 1d       	adc	r31, r1
    2822:	80 81       	ld	r24, Z
    2824:	b7 01       	movw	r22, r14
    2826:	90 e0       	ldi	r25, 0x00	; 0
    2828:	88 d1       	rcall	.+784    	; 0x2b3a <fputc>
    282a:	a1 10       	cpse	r10, r1
    282c:	f6 cf       	rjmp	.-20     	; 0x281a <vfprintf+0x378>
    282e:	33 20       	and	r3, r3
    2830:	09 f4       	brne	.+2      	; 0x2834 <vfprintf+0x392>
    2832:	5d ce       	rjmp	.-838    	; 0x24ee <vfprintf+0x4c>
    2834:	b7 01       	movw	r22, r14
    2836:	80 e2       	ldi	r24, 0x20	; 32
    2838:	90 e0       	ldi	r25, 0x00	; 0
    283a:	7f d1       	rcall	.+766    	; 0x2b3a <fputc>
    283c:	3a 94       	dec	r3
    283e:	f7 cf       	rjmp	.-18     	; 0x282e <vfprintf+0x38c>
    2840:	f7 01       	movw	r30, r14
    2842:	86 81       	ldd	r24, Z+6	; 0x06
    2844:	97 81       	ldd	r25, Z+7	; 0x07
    2846:	02 c0       	rjmp	.+4      	; 0x284c <vfprintf+0x3aa>
    2848:	8f ef       	ldi	r24, 0xFF	; 255
    284a:	9f ef       	ldi	r25, 0xFF	; 255
    284c:	2c 96       	adiw	r28, 0x0c	; 12
    284e:	0f b6       	in	r0, 0x3f	; 63
    2850:	f8 94       	cli
    2852:	de bf       	out	0x3e, r29	; 62
    2854:	0f be       	out	0x3f, r0	; 63
    2856:	cd bf       	out	0x3d, r28	; 61
    2858:	df 91       	pop	r29
    285a:	cf 91       	pop	r28
    285c:	1f 91       	pop	r17
    285e:	0f 91       	pop	r16
    2860:	ff 90       	pop	r15
    2862:	ef 90       	pop	r14
    2864:	df 90       	pop	r13
    2866:	cf 90       	pop	r12
    2868:	bf 90       	pop	r11
    286a:	af 90       	pop	r10
    286c:	9f 90       	pop	r9
    286e:	8f 90       	pop	r8
    2870:	7f 90       	pop	r7
    2872:	6f 90       	pop	r6
    2874:	5f 90       	pop	r5
    2876:	4f 90       	pop	r4
    2878:	3f 90       	pop	r3
    287a:	2f 90       	pop	r2
    287c:	08 95       	ret

0000287e <calloc>:
    287e:	0f 93       	push	r16
    2880:	1f 93       	push	r17
    2882:	cf 93       	push	r28
    2884:	df 93       	push	r29
    2886:	86 9f       	mul	r24, r22
    2888:	80 01       	movw	r16, r0
    288a:	87 9f       	mul	r24, r23
    288c:	10 0d       	add	r17, r0
    288e:	96 9f       	mul	r25, r22
    2890:	10 0d       	add	r17, r0
    2892:	11 24       	eor	r1, r1
    2894:	c8 01       	movw	r24, r16
    2896:	0d d0       	rcall	.+26     	; 0x28b2 <malloc>
    2898:	ec 01       	movw	r28, r24
    289a:	00 97       	sbiw	r24, 0x00	; 0
    289c:	21 f0       	breq	.+8      	; 0x28a6 <calloc+0x28>
    289e:	a8 01       	movw	r20, r16
    28a0:	60 e0       	ldi	r22, 0x00	; 0
    28a2:	70 e0       	ldi	r23, 0x00	; 0
    28a4:	38 d1       	rcall	.+624    	; 0x2b16 <memset>
    28a6:	ce 01       	movw	r24, r28
    28a8:	df 91       	pop	r29
    28aa:	cf 91       	pop	r28
    28ac:	1f 91       	pop	r17
    28ae:	0f 91       	pop	r16
    28b0:	08 95       	ret

000028b2 <malloc>:
    28b2:	cf 93       	push	r28
    28b4:	df 93       	push	r29
    28b6:	82 30       	cpi	r24, 0x02	; 2
    28b8:	91 05       	cpc	r25, r1
    28ba:	10 f4       	brcc	.+4      	; 0x28c0 <malloc+0xe>
    28bc:	82 e0       	ldi	r24, 0x02	; 2
    28be:	90 e0       	ldi	r25, 0x00	; 0
    28c0:	e0 91 42 0d 	lds	r30, 0x0D42
    28c4:	f0 91 43 0d 	lds	r31, 0x0D43
    28c8:	20 e0       	ldi	r18, 0x00	; 0
    28ca:	30 e0       	ldi	r19, 0x00	; 0
    28cc:	a0 e0       	ldi	r26, 0x00	; 0
    28ce:	b0 e0       	ldi	r27, 0x00	; 0
    28d0:	30 97       	sbiw	r30, 0x00	; 0
    28d2:	39 f1       	breq	.+78     	; 0x2922 <malloc+0x70>
    28d4:	40 81       	ld	r20, Z
    28d6:	51 81       	ldd	r21, Z+1	; 0x01
    28d8:	48 17       	cp	r20, r24
    28da:	59 07       	cpc	r21, r25
    28dc:	b8 f0       	brcs	.+46     	; 0x290c <malloc+0x5a>
    28de:	48 17       	cp	r20, r24
    28e0:	59 07       	cpc	r21, r25
    28e2:	71 f4       	brne	.+28     	; 0x2900 <malloc+0x4e>
    28e4:	82 81       	ldd	r24, Z+2	; 0x02
    28e6:	93 81       	ldd	r25, Z+3	; 0x03
    28e8:	10 97       	sbiw	r26, 0x00	; 0
    28ea:	29 f0       	breq	.+10     	; 0x28f6 <malloc+0x44>
    28ec:	13 96       	adiw	r26, 0x03	; 3
    28ee:	9c 93       	st	X, r25
    28f0:	8e 93       	st	-X, r24
    28f2:	12 97       	sbiw	r26, 0x02	; 2
    28f4:	2c c0       	rjmp	.+88     	; 0x294e <malloc+0x9c>
    28f6:	90 93 43 0d 	sts	0x0D43, r25
    28fa:	80 93 42 0d 	sts	0x0D42, r24
    28fe:	27 c0       	rjmp	.+78     	; 0x294e <malloc+0x9c>
    2900:	21 15       	cp	r18, r1
    2902:	31 05       	cpc	r19, r1
    2904:	31 f0       	breq	.+12     	; 0x2912 <malloc+0x60>
    2906:	42 17       	cp	r20, r18
    2908:	53 07       	cpc	r21, r19
    290a:	18 f0       	brcs	.+6      	; 0x2912 <malloc+0x60>
    290c:	a9 01       	movw	r20, r18
    290e:	db 01       	movw	r26, r22
    2910:	01 c0       	rjmp	.+2      	; 0x2914 <malloc+0x62>
    2912:	ef 01       	movw	r28, r30
    2914:	9a 01       	movw	r18, r20
    2916:	bd 01       	movw	r22, r26
    2918:	df 01       	movw	r26, r30
    291a:	02 80       	ldd	r0, Z+2	; 0x02
    291c:	f3 81       	ldd	r31, Z+3	; 0x03
    291e:	e0 2d       	mov	r30, r0
    2920:	d7 cf       	rjmp	.-82     	; 0x28d0 <malloc+0x1e>
    2922:	21 15       	cp	r18, r1
    2924:	31 05       	cpc	r19, r1
    2926:	f9 f0       	breq	.+62     	; 0x2966 <malloc+0xb4>
    2928:	28 1b       	sub	r18, r24
    292a:	39 0b       	sbc	r19, r25
    292c:	24 30       	cpi	r18, 0x04	; 4
    292e:	31 05       	cpc	r19, r1
    2930:	80 f4       	brcc	.+32     	; 0x2952 <malloc+0xa0>
    2932:	8a 81       	ldd	r24, Y+2	; 0x02
    2934:	9b 81       	ldd	r25, Y+3	; 0x03
    2936:	61 15       	cp	r22, r1
    2938:	71 05       	cpc	r23, r1
    293a:	21 f0       	breq	.+8      	; 0x2944 <malloc+0x92>
    293c:	fb 01       	movw	r30, r22
    293e:	93 83       	std	Z+3, r25	; 0x03
    2940:	82 83       	std	Z+2, r24	; 0x02
    2942:	04 c0       	rjmp	.+8      	; 0x294c <malloc+0x9a>
    2944:	90 93 43 0d 	sts	0x0D43, r25
    2948:	80 93 42 0d 	sts	0x0D42, r24
    294c:	fe 01       	movw	r30, r28
    294e:	32 96       	adiw	r30, 0x02	; 2
    2950:	44 c0       	rjmp	.+136    	; 0x29da <malloc+0x128>
    2952:	fe 01       	movw	r30, r28
    2954:	e2 0f       	add	r30, r18
    2956:	f3 1f       	adc	r31, r19
    2958:	81 93       	st	Z+, r24
    295a:	91 93       	st	Z+, r25
    295c:	22 50       	subi	r18, 0x02	; 2
    295e:	31 09       	sbc	r19, r1
    2960:	39 83       	std	Y+1, r19	; 0x01
    2962:	28 83       	st	Y, r18
    2964:	3a c0       	rjmp	.+116    	; 0x29da <malloc+0x128>
    2966:	20 91 40 0d 	lds	r18, 0x0D40
    296a:	30 91 41 0d 	lds	r19, 0x0D41
    296e:	23 2b       	or	r18, r19
    2970:	41 f4       	brne	.+16     	; 0x2982 <malloc+0xd0>
    2972:	20 91 04 02 	lds	r18, 0x0204
    2976:	30 91 05 02 	lds	r19, 0x0205
    297a:	30 93 41 0d 	sts	0x0D41, r19
    297e:	20 93 40 0d 	sts	0x0D40, r18
    2982:	20 91 02 02 	lds	r18, 0x0202
    2986:	30 91 03 02 	lds	r19, 0x0203
    298a:	21 15       	cp	r18, r1
    298c:	31 05       	cpc	r19, r1
    298e:	41 f4       	brne	.+16     	; 0x29a0 <malloc+0xee>
    2990:	2d b7       	in	r18, 0x3d	; 61
    2992:	3e b7       	in	r19, 0x3e	; 62
    2994:	40 91 06 02 	lds	r20, 0x0206
    2998:	50 91 07 02 	lds	r21, 0x0207
    299c:	24 1b       	sub	r18, r20
    299e:	35 0b       	sbc	r19, r21
    29a0:	e0 91 40 0d 	lds	r30, 0x0D40
    29a4:	f0 91 41 0d 	lds	r31, 0x0D41
    29a8:	e2 17       	cp	r30, r18
    29aa:	f3 07       	cpc	r31, r19
    29ac:	a0 f4       	brcc	.+40     	; 0x29d6 <malloc+0x124>
    29ae:	2e 1b       	sub	r18, r30
    29b0:	3f 0b       	sbc	r19, r31
    29b2:	28 17       	cp	r18, r24
    29b4:	39 07       	cpc	r19, r25
    29b6:	78 f0       	brcs	.+30     	; 0x29d6 <malloc+0x124>
    29b8:	ac 01       	movw	r20, r24
    29ba:	4e 5f       	subi	r20, 0xFE	; 254
    29bc:	5f 4f       	sbci	r21, 0xFF	; 255
    29be:	24 17       	cp	r18, r20
    29c0:	35 07       	cpc	r19, r21
    29c2:	48 f0       	brcs	.+18     	; 0x29d6 <malloc+0x124>
    29c4:	4e 0f       	add	r20, r30
    29c6:	5f 1f       	adc	r21, r31
    29c8:	50 93 41 0d 	sts	0x0D41, r21
    29cc:	40 93 40 0d 	sts	0x0D40, r20
    29d0:	81 93       	st	Z+, r24
    29d2:	91 93       	st	Z+, r25
    29d4:	02 c0       	rjmp	.+4      	; 0x29da <malloc+0x128>
    29d6:	e0 e0       	ldi	r30, 0x00	; 0
    29d8:	f0 e0       	ldi	r31, 0x00	; 0
    29da:	cf 01       	movw	r24, r30
    29dc:	df 91       	pop	r29
    29de:	cf 91       	pop	r28
    29e0:	08 95       	ret

000029e2 <free>:
    29e2:	cf 93       	push	r28
    29e4:	df 93       	push	r29
    29e6:	00 97       	sbiw	r24, 0x00	; 0
    29e8:	09 f4       	brne	.+2      	; 0x29ec <free+0xa>
    29ea:	87 c0       	rjmp	.+270    	; 0x2afa <free+0x118>
    29ec:	fc 01       	movw	r30, r24
    29ee:	32 97       	sbiw	r30, 0x02	; 2
    29f0:	13 82       	std	Z+3, r1	; 0x03
    29f2:	12 82       	std	Z+2, r1	; 0x02
    29f4:	c0 91 42 0d 	lds	r28, 0x0D42
    29f8:	d0 91 43 0d 	lds	r29, 0x0D43
    29fc:	20 97       	sbiw	r28, 0x00	; 0
    29fe:	81 f4       	brne	.+32     	; 0x2a20 <free+0x3e>
    2a00:	20 81       	ld	r18, Z
    2a02:	31 81       	ldd	r19, Z+1	; 0x01
    2a04:	28 0f       	add	r18, r24
    2a06:	39 1f       	adc	r19, r25
    2a08:	80 91 40 0d 	lds	r24, 0x0D40
    2a0c:	90 91 41 0d 	lds	r25, 0x0D41
    2a10:	82 17       	cp	r24, r18
    2a12:	93 07       	cpc	r25, r19
    2a14:	79 f5       	brne	.+94     	; 0x2a74 <free+0x92>
    2a16:	f0 93 41 0d 	sts	0x0D41, r31
    2a1a:	e0 93 40 0d 	sts	0x0D40, r30
    2a1e:	6d c0       	rjmp	.+218    	; 0x2afa <free+0x118>
    2a20:	de 01       	movw	r26, r28
    2a22:	20 e0       	ldi	r18, 0x00	; 0
    2a24:	30 e0       	ldi	r19, 0x00	; 0
    2a26:	ae 17       	cp	r26, r30
    2a28:	bf 07       	cpc	r27, r31
    2a2a:	50 f4       	brcc	.+20     	; 0x2a40 <free+0x5e>
    2a2c:	12 96       	adiw	r26, 0x02	; 2
    2a2e:	4d 91       	ld	r20, X+
    2a30:	5c 91       	ld	r21, X
    2a32:	13 97       	sbiw	r26, 0x03	; 3
    2a34:	9d 01       	movw	r18, r26
    2a36:	41 15       	cp	r20, r1
    2a38:	51 05       	cpc	r21, r1
    2a3a:	09 f1       	breq	.+66     	; 0x2a7e <free+0x9c>
    2a3c:	da 01       	movw	r26, r20
    2a3e:	f3 cf       	rjmp	.-26     	; 0x2a26 <free+0x44>
    2a40:	b3 83       	std	Z+3, r27	; 0x03
    2a42:	a2 83       	std	Z+2, r26	; 0x02
    2a44:	40 81       	ld	r20, Z
    2a46:	51 81       	ldd	r21, Z+1	; 0x01
    2a48:	84 0f       	add	r24, r20
    2a4a:	95 1f       	adc	r25, r21
    2a4c:	8a 17       	cp	r24, r26
    2a4e:	9b 07       	cpc	r25, r27
    2a50:	71 f4       	brne	.+28     	; 0x2a6e <free+0x8c>
    2a52:	8d 91       	ld	r24, X+
    2a54:	9c 91       	ld	r25, X
    2a56:	11 97       	sbiw	r26, 0x01	; 1
    2a58:	84 0f       	add	r24, r20
    2a5a:	95 1f       	adc	r25, r21
    2a5c:	02 96       	adiw	r24, 0x02	; 2
    2a5e:	91 83       	std	Z+1, r25	; 0x01
    2a60:	80 83       	st	Z, r24
    2a62:	12 96       	adiw	r26, 0x02	; 2
    2a64:	8d 91       	ld	r24, X+
    2a66:	9c 91       	ld	r25, X
    2a68:	13 97       	sbiw	r26, 0x03	; 3
    2a6a:	93 83       	std	Z+3, r25	; 0x03
    2a6c:	82 83       	std	Z+2, r24	; 0x02
    2a6e:	21 15       	cp	r18, r1
    2a70:	31 05       	cpc	r19, r1
    2a72:	29 f4       	brne	.+10     	; 0x2a7e <free+0x9c>
    2a74:	f0 93 43 0d 	sts	0x0D43, r31
    2a78:	e0 93 42 0d 	sts	0x0D42, r30
    2a7c:	3e c0       	rjmp	.+124    	; 0x2afa <free+0x118>
    2a7e:	d9 01       	movw	r26, r18
    2a80:	13 96       	adiw	r26, 0x03	; 3
    2a82:	fc 93       	st	X, r31
    2a84:	ee 93       	st	-X, r30
    2a86:	12 97       	sbiw	r26, 0x02	; 2
    2a88:	4d 91       	ld	r20, X+
    2a8a:	5d 91       	ld	r21, X+
    2a8c:	a4 0f       	add	r26, r20
    2a8e:	b5 1f       	adc	r27, r21
    2a90:	ea 17       	cp	r30, r26
    2a92:	fb 07       	cpc	r31, r27
    2a94:	79 f4       	brne	.+30     	; 0x2ab4 <free+0xd2>
    2a96:	80 81       	ld	r24, Z
    2a98:	91 81       	ldd	r25, Z+1	; 0x01
    2a9a:	84 0f       	add	r24, r20
    2a9c:	95 1f       	adc	r25, r21
    2a9e:	02 96       	adiw	r24, 0x02	; 2
    2aa0:	d9 01       	movw	r26, r18
    2aa2:	11 96       	adiw	r26, 0x01	; 1
    2aa4:	9c 93       	st	X, r25
    2aa6:	8e 93       	st	-X, r24
    2aa8:	82 81       	ldd	r24, Z+2	; 0x02
    2aaa:	93 81       	ldd	r25, Z+3	; 0x03
    2aac:	13 96       	adiw	r26, 0x03	; 3
    2aae:	9c 93       	st	X, r25
    2ab0:	8e 93       	st	-X, r24
    2ab2:	12 97       	sbiw	r26, 0x02	; 2
    2ab4:	e0 e0       	ldi	r30, 0x00	; 0
    2ab6:	f0 e0       	ldi	r31, 0x00	; 0
    2ab8:	8a 81       	ldd	r24, Y+2	; 0x02
    2aba:	9b 81       	ldd	r25, Y+3	; 0x03
    2abc:	00 97       	sbiw	r24, 0x00	; 0
    2abe:	19 f0       	breq	.+6      	; 0x2ac6 <free+0xe4>
    2ac0:	fe 01       	movw	r30, r28
    2ac2:	ec 01       	movw	r28, r24
    2ac4:	f9 cf       	rjmp	.-14     	; 0x2ab8 <free+0xd6>
    2ac6:	ce 01       	movw	r24, r28
    2ac8:	02 96       	adiw	r24, 0x02	; 2
    2aca:	28 81       	ld	r18, Y
    2acc:	39 81       	ldd	r19, Y+1	; 0x01
    2ace:	82 0f       	add	r24, r18
    2ad0:	93 1f       	adc	r25, r19
    2ad2:	20 91 40 0d 	lds	r18, 0x0D40
    2ad6:	30 91 41 0d 	lds	r19, 0x0D41
    2ada:	28 17       	cp	r18, r24
    2adc:	39 07       	cpc	r19, r25
    2ade:	69 f4       	brne	.+26     	; 0x2afa <free+0x118>
    2ae0:	30 97       	sbiw	r30, 0x00	; 0
    2ae2:	29 f4       	brne	.+10     	; 0x2aee <free+0x10c>
    2ae4:	10 92 43 0d 	sts	0x0D43, r1
    2ae8:	10 92 42 0d 	sts	0x0D42, r1
    2aec:	02 c0       	rjmp	.+4      	; 0x2af2 <free+0x110>
    2aee:	13 82       	std	Z+3, r1	; 0x03
    2af0:	12 82       	std	Z+2, r1	; 0x02
    2af2:	d0 93 41 0d 	sts	0x0D41, r29
    2af6:	c0 93 40 0d 	sts	0x0D40, r28
    2afa:	df 91       	pop	r29
    2afc:	cf 91       	pop	r28
    2afe:	08 95       	ret

00002b00 <strnlen_P>:
    2b00:	fc 01       	movw	r30, r24
    2b02:	05 90       	lpm	r0, Z+
    2b04:	61 50       	subi	r22, 0x01	; 1
    2b06:	70 40       	sbci	r23, 0x00	; 0
    2b08:	01 10       	cpse	r0, r1
    2b0a:	d8 f7       	brcc	.-10     	; 0x2b02 <strnlen_P+0x2>
    2b0c:	80 95       	com	r24
    2b0e:	90 95       	com	r25
    2b10:	8e 0f       	add	r24, r30
    2b12:	9f 1f       	adc	r25, r31
    2b14:	08 95       	ret

00002b16 <memset>:
    2b16:	dc 01       	movw	r26, r24
    2b18:	01 c0       	rjmp	.+2      	; 0x2b1c <memset+0x6>
    2b1a:	6d 93       	st	X+, r22
    2b1c:	41 50       	subi	r20, 0x01	; 1
    2b1e:	50 40       	sbci	r21, 0x00	; 0
    2b20:	e0 f7       	brcc	.-8      	; 0x2b1a <memset+0x4>
    2b22:	08 95       	ret

00002b24 <strnlen>:
    2b24:	fc 01       	movw	r30, r24
    2b26:	61 50       	subi	r22, 0x01	; 1
    2b28:	70 40       	sbci	r23, 0x00	; 0
    2b2a:	01 90       	ld	r0, Z+
    2b2c:	01 10       	cpse	r0, r1
    2b2e:	d8 f7       	brcc	.-10     	; 0x2b26 <strnlen+0x2>
    2b30:	80 95       	com	r24
    2b32:	90 95       	com	r25
    2b34:	8e 0f       	add	r24, r30
    2b36:	9f 1f       	adc	r25, r31
    2b38:	08 95       	ret

00002b3a <fputc>:
    2b3a:	0f 93       	push	r16
    2b3c:	1f 93       	push	r17
    2b3e:	cf 93       	push	r28
    2b40:	df 93       	push	r29
    2b42:	18 2f       	mov	r17, r24
    2b44:	09 2f       	mov	r16, r25
    2b46:	eb 01       	movw	r28, r22
    2b48:	8b 81       	ldd	r24, Y+3	; 0x03
    2b4a:	81 fd       	sbrc	r24, 1
    2b4c:	03 c0       	rjmp	.+6      	; 0x2b54 <fputc+0x1a>
    2b4e:	8f ef       	ldi	r24, 0xFF	; 255
    2b50:	9f ef       	ldi	r25, 0xFF	; 255
    2b52:	20 c0       	rjmp	.+64     	; 0x2b94 <fputc+0x5a>
    2b54:	82 ff       	sbrs	r24, 2
    2b56:	10 c0       	rjmp	.+32     	; 0x2b78 <fputc+0x3e>
    2b58:	4e 81       	ldd	r20, Y+6	; 0x06
    2b5a:	5f 81       	ldd	r21, Y+7	; 0x07
    2b5c:	2c 81       	ldd	r18, Y+4	; 0x04
    2b5e:	3d 81       	ldd	r19, Y+5	; 0x05
    2b60:	42 17       	cp	r20, r18
    2b62:	53 07       	cpc	r21, r19
    2b64:	7c f4       	brge	.+30     	; 0x2b84 <fputc+0x4a>
    2b66:	e8 81       	ld	r30, Y
    2b68:	f9 81       	ldd	r31, Y+1	; 0x01
    2b6a:	9f 01       	movw	r18, r30
    2b6c:	2f 5f       	subi	r18, 0xFF	; 255
    2b6e:	3f 4f       	sbci	r19, 0xFF	; 255
    2b70:	39 83       	std	Y+1, r19	; 0x01
    2b72:	28 83       	st	Y, r18
    2b74:	10 83       	st	Z, r17
    2b76:	06 c0       	rjmp	.+12     	; 0x2b84 <fputc+0x4a>
    2b78:	e8 85       	ldd	r30, Y+8	; 0x08
    2b7a:	f9 85       	ldd	r31, Y+9	; 0x09
    2b7c:	81 2f       	mov	r24, r17
    2b7e:	19 95       	eicall
    2b80:	89 2b       	or	r24, r25
    2b82:	29 f7       	brne	.-54     	; 0x2b4e <fputc+0x14>
    2b84:	2e 81       	ldd	r18, Y+6	; 0x06
    2b86:	3f 81       	ldd	r19, Y+7	; 0x07
    2b88:	2f 5f       	subi	r18, 0xFF	; 255
    2b8a:	3f 4f       	sbci	r19, 0xFF	; 255
    2b8c:	3f 83       	std	Y+7, r19	; 0x07
    2b8e:	2e 83       	std	Y+6, r18	; 0x06
    2b90:	81 2f       	mov	r24, r17
    2b92:	90 2f       	mov	r25, r16
    2b94:	df 91       	pop	r29
    2b96:	cf 91       	pop	r28
    2b98:	1f 91       	pop	r17
    2b9a:	0f 91       	pop	r16
    2b9c:	08 95       	ret

00002b9e <__ultoa_invert>:
    2b9e:	fa 01       	movw	r30, r20
    2ba0:	aa 27       	eor	r26, r26
    2ba2:	28 30       	cpi	r18, 0x08	; 8
    2ba4:	51 f1       	breq	.+84     	; 0x2bfa <__ultoa_invert+0x5c>
    2ba6:	20 31       	cpi	r18, 0x10	; 16
    2ba8:	81 f1       	breq	.+96     	; 0x2c0a <__ultoa_invert+0x6c>
    2baa:	e8 94       	clt
    2bac:	6f 93       	push	r22
    2bae:	6e 7f       	andi	r22, 0xFE	; 254
    2bb0:	6e 5f       	subi	r22, 0xFE	; 254
    2bb2:	7f 4f       	sbci	r23, 0xFF	; 255
    2bb4:	8f 4f       	sbci	r24, 0xFF	; 255
    2bb6:	9f 4f       	sbci	r25, 0xFF	; 255
    2bb8:	af 4f       	sbci	r26, 0xFF	; 255
    2bba:	b1 e0       	ldi	r27, 0x01	; 1
    2bbc:	3e d0       	rcall	.+124    	; 0x2c3a <__ultoa_invert+0x9c>
    2bbe:	b4 e0       	ldi	r27, 0x04	; 4
    2bc0:	3c d0       	rcall	.+120    	; 0x2c3a <__ultoa_invert+0x9c>
    2bc2:	67 0f       	add	r22, r23
    2bc4:	78 1f       	adc	r23, r24
    2bc6:	89 1f       	adc	r24, r25
    2bc8:	9a 1f       	adc	r25, r26
    2bca:	a1 1d       	adc	r26, r1
    2bcc:	68 0f       	add	r22, r24
    2bce:	79 1f       	adc	r23, r25
    2bd0:	8a 1f       	adc	r24, r26
    2bd2:	91 1d       	adc	r25, r1
    2bd4:	a1 1d       	adc	r26, r1
    2bd6:	6a 0f       	add	r22, r26
    2bd8:	71 1d       	adc	r23, r1
    2bda:	81 1d       	adc	r24, r1
    2bdc:	91 1d       	adc	r25, r1
    2bde:	a1 1d       	adc	r26, r1
    2be0:	20 d0       	rcall	.+64     	; 0x2c22 <__ultoa_invert+0x84>
    2be2:	09 f4       	brne	.+2      	; 0x2be6 <__ultoa_invert+0x48>
    2be4:	68 94       	set
    2be6:	3f 91       	pop	r19
    2be8:	2a e0       	ldi	r18, 0x0A	; 10
    2bea:	26 9f       	mul	r18, r22
    2bec:	11 24       	eor	r1, r1
    2bee:	30 19       	sub	r19, r0
    2bf0:	30 5d       	subi	r19, 0xD0	; 208
    2bf2:	31 93       	st	Z+, r19
    2bf4:	de f6       	brtc	.-74     	; 0x2bac <__ultoa_invert+0xe>
    2bf6:	cf 01       	movw	r24, r30
    2bf8:	08 95       	ret
    2bfa:	46 2f       	mov	r20, r22
    2bfc:	47 70       	andi	r20, 0x07	; 7
    2bfe:	40 5d       	subi	r20, 0xD0	; 208
    2c00:	41 93       	st	Z+, r20
    2c02:	b3 e0       	ldi	r27, 0x03	; 3
    2c04:	0f d0       	rcall	.+30     	; 0x2c24 <__ultoa_invert+0x86>
    2c06:	c9 f7       	brne	.-14     	; 0x2bfa <__ultoa_invert+0x5c>
    2c08:	f6 cf       	rjmp	.-20     	; 0x2bf6 <__ultoa_invert+0x58>
    2c0a:	46 2f       	mov	r20, r22
    2c0c:	4f 70       	andi	r20, 0x0F	; 15
    2c0e:	40 5d       	subi	r20, 0xD0	; 208
    2c10:	4a 33       	cpi	r20, 0x3A	; 58
    2c12:	18 f0       	brcs	.+6      	; 0x2c1a <__ultoa_invert+0x7c>
    2c14:	49 5d       	subi	r20, 0xD9	; 217
    2c16:	31 fd       	sbrc	r19, 1
    2c18:	40 52       	subi	r20, 0x20	; 32
    2c1a:	41 93       	st	Z+, r20
    2c1c:	02 d0       	rcall	.+4      	; 0x2c22 <__ultoa_invert+0x84>
    2c1e:	a9 f7       	brne	.-22     	; 0x2c0a <__ultoa_invert+0x6c>
    2c20:	ea cf       	rjmp	.-44     	; 0x2bf6 <__ultoa_invert+0x58>
    2c22:	b4 e0       	ldi	r27, 0x04	; 4
    2c24:	a6 95       	lsr	r26
    2c26:	97 95       	ror	r25
    2c28:	87 95       	ror	r24
    2c2a:	77 95       	ror	r23
    2c2c:	67 95       	ror	r22
    2c2e:	ba 95       	dec	r27
    2c30:	c9 f7       	brne	.-14     	; 0x2c24 <__ultoa_invert+0x86>
    2c32:	00 97       	sbiw	r24, 0x00	; 0
    2c34:	61 05       	cpc	r22, r1
    2c36:	71 05       	cpc	r23, r1
    2c38:	08 95       	ret
    2c3a:	9b 01       	movw	r18, r22
    2c3c:	ac 01       	movw	r20, r24
    2c3e:	0a 2e       	mov	r0, r26
    2c40:	06 94       	lsr	r0
    2c42:	57 95       	ror	r21
    2c44:	47 95       	ror	r20
    2c46:	37 95       	ror	r19
    2c48:	27 95       	ror	r18
    2c4a:	ba 95       	dec	r27
    2c4c:	c9 f7       	brne	.-14     	; 0x2c40 <__ultoa_invert+0xa2>
    2c4e:	62 0f       	add	r22, r18
    2c50:	73 1f       	adc	r23, r19
    2c52:	84 1f       	adc	r24, r20
    2c54:	95 1f       	adc	r25, r21
    2c56:	a0 1d       	adc	r26, r0
    2c58:	08 95       	ret

00002c5a <_exit>:
    2c5a:	f8 94       	cli

00002c5c <__stop_program>:
    2c5c:	ff cf       	rjmp	.-2      	; 0x2c5c <__stop_program>
